

Microchip MPLAB XC8 Assembler V2.36 build 20220127204148 
                                                                                               Wed Jun 29 10:15:05 2022

Microchip MPLAB XC8 C Compiler v2.36 (Free license) build 20220127204148 Og1 
     1                           	processor	18F4520
     2                           	fnconf	rparam,??,?,0
     3                           	pagewidth 120
     4                           	opt	flic
     5                           	psect	idataCOMRAM,global,class=CODE,delta=1,noexec
     6                           	psect	idataBANK0,global,class=CODE,delta=1,noexec
     7                           	psect	smallconst,global,reloc=2,class=SMALLCONST,delta=1,noexec
     8                           	psect	nvBANK0,global,class=BANK0,space=1,delta=1,lowdata,noexec
     9                           	psect	cinit,global,reloc=2,class=CODE,delta=1
    10                           	psect	bitbssCOMRAM,global,bit,class=COMRAM,space=1,delta=1,lowdata,noexec
    11                           	psect	bssCOMRAM,global,class=COMRAM,space=1,delta=1,lowdata,noexec
    12                           	psect	dataCOMRAM,global,class=COMRAM,space=1,delta=1,lowdata,noexec
    13                           	psect	dataBANK0,global,class=BANK0,space=1,delta=1,lowdata,noexec
    14                           	psect	bssBANK1,global,class=BANK1,space=1,delta=1,lowdata,noexec
    15                           	psect	cstackBANK0,global,class=BANK0,space=1,delta=1,lowdata,noexec
    16                           	psect	cstackCOMRAM,global,class=COMRAM,space=1,delta=1,lowdata,noexec
    17                           	psect	text0,global,reloc=2,class=CODE,delta=1
    18                           	psect	text1,global,reloc=2,class=CODE,delta=1
    19                           	psect	text2,global,reloc=2,class=CODE,delta=1,group=3
    20                           	psect	text3,global,reloc=2,class=CODE,delta=1
    21                           	psect	text4,global,reloc=2,class=CODE,delta=1,group=3
    22                           	psect	text5,global,reloc=2,class=CODE,delta=1
    23                           	psect	text6,global,reloc=2,class=CODE,delta=1,group=1
    24                           	psect	text7,global,reloc=2,class=CODE,delta=1,group=2
    25                           	psect	text8,global,reloc=2,class=CODE,delta=1,group=2
    26                           	psect	text9,global,reloc=2,class=CODE,delta=1
    27                           	psect	text10,global,reloc=2,class=CODE,delta=1
    28                           	psect	text11,global,reloc=2,class=CODE,delta=1
    29                           	psect	text12,global,reloc=2,class=CODE,delta=1
    30                           	psect	text13,global,reloc=2,class=CODE,delta=1
    31                           	psect	text14,global,reloc=2,class=CODE,delta=1
    32                           	psect	text15,global,reloc=2,class=CODE,delta=1
    33                           	psect	text16,global,reloc=2,class=CODE,delta=1
    34                           	psect	text17,global,reloc=2,class=CODE,delta=1
    35                           	psect	text18,global,reloc=2,class=CODE,delta=1
    36                           	psect	text19,global,reloc=2,class=CODE,delta=1
    37                           	psect	intcode,global,reloc=2,class=CODE,delta=1
    38                           	psect	intcode_body,global,reloc=2,class=CODE,delta=1
    39                           	psect	text21,global,reloc=2,class=CODE,delta=1
    40                           	psect	text22,global,reloc=2,class=CODE,delta=1
    41                           	psect	text23,global,reloc=2,class=CODE,delta=1
    42                           	psect	text24,global,reloc=2,class=CODE,delta=1
    43                           	psect	text25,global,reloc=2,class=CODE,delta=1
    44                           	psect	text26,global,reloc=2,class=CODE,delta=1
    45                           	psect	text27,global,reloc=2,class=CODE,delta=1
    46                           	psect	text28,global,reloc=2,class=CODE,delta=1
    47                           	psect	text29,global,reloc=2,class=CODE,delta=1
    48                           	psect	text30,global,reloc=2,class=CODE,delta=1
    49                           	psect	text31,global,reloc=2,class=CODE,delta=1
    50                           	psect	text32,global,reloc=2,class=CODE,delta=1
    51                           	psect	text33,global,reloc=2,class=CODE,delta=1
    52                           	psect	text34,global,reloc=2,class=CODE,delta=1
    53                           	psect	intsave_regs,global,class=BIGRAM,space=1,delta=1,noexec
    54                           	psect	rparam,global,class=COMRAM,space=1,delta=1,noexec
    55                           	psect	temp,global,ovrld,common,class=COMRAM,space=1,delta=1
    56                           	psect	idloc,global,abs,ovrld,class=IDLOC,space=5,delta=1,noexec
    57                           	psect	config,global,abs,ovrld,class=CONFIG,space=4,delta=1,noexec
    58  0000                     
    59                           ; Version 2.20
    60                           ; Generated 12/02/2020 GMT
    61                           ; 
    62                           ; Copyright © 2020, Microchip Technology Inc. and its subsidiaries ("Microchip")
    63                           ; All rights reserved.
    64                           ; 
    65                           ; This software is developed by Microchip Technology Inc. and its subsidiaries ("Microch
      +                          ip").
    66                           ; 
    67                           ; Redistribution and use in source and binary forms, with or without modification, are
    68                           ; permitted provided that the following conditions are met:
    69                           ; 
    70                           ;     1. Redistributions of source code must retain the above copyright notice, this lis
      +                          t of
    71                           ;        conditions and the following disclaimer.
    72                           ; 
    73                           ;     2. Redistributions in binary form must reproduce the above copyright notice, this 
      +                          list
    74                           ;        of conditions and the following disclaimer in the documentation and/or other
    75                           ;        materials provided with the distribution.
    76                           ; 
    77                           ;     3. Microchip's name may not be used to endorse or promote products derived from th
      +                          is
    78                           ;        software without specific prior written permission.
    79                           ; 
    80                           ; THIS SOFTWARE IS PROVIDED BY MICROCHIP "AS IS" AND ANY EXPRESS OR IMPLIED WARRANTIES,
    81                           ; INCLUDING, BUT NOT LIMITED TO, THE IMPLIED WARRANTIES OF MERCHANTABILITY AND FITNESS F
      +                          OR
    82                           ; PURPOSE ARE DISCLAIMED.  IN NO EVENT SHALL MICROCHIP BE LIABLE FOR ANY DIRECT, INDIREC
      +                          T,
    83                           ; INCIDENTAL, SPECIAL, EXEMPLARY, OR CONSEQUENTIAL DAMAGES (INCLUDING BUT NOT LIMITED TO
    84                           ; PROCUREMENT OF SUBSTITUTE GOODS OR SERVICES; LOSS OF USE, DATA OR PROFITS; OR BUSINESS
    85                           ; INTERRUPTION) HOWSOEVER CAUSED AND ON ANY THEORY OF LIABILITY, WHETHER IN CONTRACT, ST
      +                          RICT
    86                           ; LIABILITY, OR TORT (INCLUDING NEGLIGENCE OR OTHERWISE) ARISING IN ANY WAY OUT OF THE U
      +                          SE OF
    87                           ; THIS SOFTWARE, EVEN IF ADVISED OF THE POSSIBILITY OF SUCH DAMAGE.
    88                           ; 
    89                           ; 
    90                           ; Code-generator required, PIC18F4520 Definitions
    91                           ; 
    92                           ; SFR Addresses
    93  0000                     
    94                           	psect	idataCOMRAM
    95  001CF4                     __pidataCOMRAM:
    96                           	callstack 0
    97                           
    98                           ;initializer for tela_configura@F2614
    99  001CF4  43                 	db	67
   100  001CF5  4F                 	db	79
   101  001CF6  4E                 	db	78
   102  001CF7  46                 	db	70
   103  001CF8  49                 	db	73
   104  001CF9  47                 	db	71
   105  001CFA  55                 	db	85
   106  001CFB  52                 	db	82
   107  001CFC  41                 	db	65
   108                           
   109                           ;initializer for _eeprom_address
   110  001CFD  FF                 	db	255
   111                           
   112                           ;initializer for _mili2
   113  001CFE  0A                 	db	10
   114                           
   115                           ;initializer for _mili1
   116  001CFF  0A                 	db	10
   117                           
   118                           	psect	idataBANK0
   119  001D00                     __pidataBANK0:
   120                           	callstack 0
   121                           
   122                           ;initializer for _minConfigura
   123  001D00  0001               	dw	1
   124                           
   125                           	psect	smallconst
   126  000600                     __psmallconst:
   127                           	callstack 0
   128  000600  00                 	db	0
   129  000601                     _dpowers:
   130                           	callstack 0
   131  000601  0001               	dw	1
   132  000603  000A               	dw	10
   133  000605  0064               	dw	100
   134  000607  03E8               	dw	1000
   135  000609  2710               	dw	10000
   136  00060B                     __end_of_dpowers:
   137                           	callstack 0
   138  0000                     _TMR0	set	4054
   139  0000                     _PORTAbits	set	3968
   140  0000                     _EECON2	set	4007
   141  0000                     _PORTBbits	set	3969
   142  0000                     _T0CONbits	set	4053
   143  0000                     _INTCONbits	set	4082
   144  00060B                     STR_22:
   145  00060B  2D                 	db	45
   146  00060C  4A                 	db	74	;'J'
   147  00060D  6F                 	db	111	;'o'
   148  00060E  67                 	db	103	;'g'
   149  00060F  61                 	db	97	;'a'
   150  000610  64                 	db	100	;'d'
   151  000611  6F                 	db	111	;'o'
   152  000612  72                 	db	114	;'r'
   153  000613  20                 	db	32
   154  000614  31                 	db	49	;'1'
   155  000615  00                 	db	0
   156  000616                     STR_28:
   157  000616  2D                 	db	45
   158  000617  4A                 	db	74	;'J'
   159  000618  6F                 	db	111	;'o'
   160  000619  67                 	db	103	;'g'
   161  00061A  61                 	db	97	;'a'
   162  00061B  64                 	db	100	;'d'
   163  00061C  6F                 	db	111	;'o'
   164  00061D  72                 	db	114	;'r'
   165  00061E  20                 	db	32
   166  00061F  32                 	db	50	;'2'
   167  000620  00                 	db	0
   168  000621                     STR_1:
   169  000621  56                 	db	86	;'V'
   170  000622  65                 	db	101	;'e'
   171  000623  6E                 	db	110	;'n'
   172  000624  63                 	db	99	;'c'
   173  000625  65                 	db	101	;'e'
   174  000626  64                 	db	100	;'d'
   175  000627  6F                 	db	111	;'o'
   176  000628  72                 	db	114	;'r'
   177  000629  00                 	db	0
   178  00062A                     STR_5:
   179  00062A  30                 	db	48	;'0'
   180  00062B  25                 	db	37
   181  00062C  64                 	db	100	;'d'
   182  00062D  00                 	db	0
   183  00062E                     STR_13:
   184  00062E  3A                 	db	58	;':'
   185  00062F  00                 	db	0
   186  000630                     STR_16:
   187  000630  4F                 	db	79	;'O'
   188  000631  00                 	db	0
   189  000632  00                 	db	0	; dummy byte at the end
   190  0000                     
   191                           	psect	nvBANK0
   192  0000FE                     __pnvBANK0:
   193                           	callstack 0
   194  0000FE                     _read_char:
   195                           	callstack 0
   196  0000FE                     	ds	1
   197  0000                     _T0CON	set	4053
   198  0000                     _INTCON	set	4082
   199  0000                     _PORTDbits	set	3971
   200  0000                     _INTCON3bits	set	4080
   201  0000                     _PORTD	set	3971
   202  0000                     _TRISB	set	3987
   203  0000                     _TRISD	set	3989
   204  0000                     _PIR2bits	set	4001
   205  0000                     _EECON1bits	set	4006
   206  0000                     _EEDATA	set	4008
   207  0000                     _EEADR	set	4009
   208  0000                     _ADCON1	set	4033
   209                           
   210                           ; #config settings
   211                           
   212                           	psect	cinit
   213  00196C                     __pcinit:
   214                           	callstack 0
   215  00196C                     start_initialization:
   216                           	callstack 0
   217  00196C                     __initialization:
   218                           	callstack 0
   219                           
   220                           ; Initialize objects allocated to BANK0 (2 bytes)
   221                           ; load TBLPTR registers with __pidataBANK0
   222  00196C  0E00               	movlw	low __pidataBANK0
   223  00196E  6EF6               	movwf	tblptrl,c
   224  001970  0E1D               	movlw	high __pidataBANK0
   225  001972  6EF7               	movwf	tblptrh,c
   226  001974  0E00               	movlw	low (__pidataBANK0 shr (0+16))
   227  001976  6EF8               	movwf	tblptru,c
   228  001978  0009               	tblrd		*+	;fetch initializer
   229  00197A  CFF5 F0FC          	movff	tablat,__pdataBANK0
   230  00197E  0009               	tblrd		*+	;fetch initializer
   231  001980  CFF5 F0FD          	movff	tablat,__pdataBANK0+1
   232                           
   233                           ; Initialize objects allocated to COMRAM (12 bytes)
   234                           ; load TBLPTR registers with __pidataCOMRAM
   235  001984  0EF4               	movlw	low __pidataCOMRAM
   236  001986  6EF6               	movwf	tblptrl,c
   237  001988  0E1C               	movlw	high __pidataCOMRAM
   238  00198A  6EF7               	movwf	tblptrh,c
   239  00198C  0E00               	movlw	low (__pidataCOMRAM shr (0+16))
   240  00198E  6EF8               	movwf	tblptru,c
   241  001990  EE00  F06D         	lfsr	0,__pdataCOMRAM
   242  001994  EE10 F00C          	lfsr	1,12
   243  001998                     copy_data0:
   244  001998  0009               	tblrd		*+
   245  00199A  CFF5 FFEE          	movff	tablat,postinc0
   246  00199E  50E5               	movf	postdec1,w,c
   247  0019A0  50E1               	movf	fsr1l,w,c
   248  0019A2  E1FA               	bnz	copy_data0
   249                           
   250                           ; Clear objects allocated to BANK1 (144 bytes)
   251  0019A4  EE01  F000         	lfsr	0,__pbssBANK1
   252  0019A8  0E90               	movlw	144
   253  0019AA                     clear_0:
   254  0019AA  6AEE               	clrf	postinc0,c
   255  0019AC  06E8               	decf	wreg,f,c
   256  0019AE  E1FD               	bnz	clear_0
   257                           
   258                           ; Clear objects allocated to BITCOMRAM (1 bytes)
   259  0019B0  6A79               	clrf	(__pbitbssCOMRAM/(0+8))& (0+255),c
   260                           
   261                           ; Clear objects allocated to COMRAM (17 bytes)
   262  0019B2  EE00  F05C         	lfsr	0,__pbssCOMRAM
   263  0019B6  0E11               	movlw	17
   264  0019B8                     clear_1:
   265  0019B8  6AEE               	clrf	postinc0,c
   266  0019BA  06E8               	decf	wreg,f,c
   267  0019BC  E1FD               	bnz	clear_1
   268  0019BE                     end_of_initialization:
   269                           	callstack 0
   270  0019BE                     __end_of__initialization:
   271                           	callstack 0
   272  0019BE  907A               	bcf	int$flags,0,c	;clear compiler interrupt flag (level 1)
   273  0019C0  927A               	bcf	int$flags,1,c	;clear compiler interrupt flag (level 2)
   274  0019C2  0E00               	movlw	low (__Lmediumconst shr (0+16))
   275  0019C4  6EF8               	movwf	tblptru,c
   276  0019C6  0100               	movlb	0
   277  0019C8  EFAC  F006         	goto	_main	;jump to C main() function
   278                           
   279                           	psect	bitbssCOMRAM
   280  0003C8                     __pbitbssCOMRAM:
   281                           	callstack 0
   282  0003C8                     _configura:
   283                           	callstack 0
   284  0003C8                     	ds	1
   285  0003C9                     _tipo:
   286                           	callstack 0
   287  0003C9                     	ds	1
   288  0003CA                     _x:
   289                           	callstack 0
   290  0003CA                     	ds	1
   291  0003CB                     _inicia:
   292                           	callstack 0
   293  0003CB                     	ds	1
   294  0003CC                     _player:
   295                           	callstack 0
   296  0003CC                     	ds	1
   297                           
   298                           	psect	bssCOMRAM
   299  00005C                     __pbssCOMRAM:
   300                           	callstack 0
   301  00005C                     _count:
   302                           	callstack 0
   303  00005C                     	ds	4
   304  000060                     _mainEventFlag:
   305                           	callstack 0
   306  000060                     	ds	4
   307  000064                     _min2:
   308                           	callstack 0
   309  000064                     	ds	2
   310  000066                     _min1:
   311                           	callstack 0
   312  000066                     	ds	2
   313  000068                     _seg2:
   314                           	callstack 0
   315  000068                     	ds	2
   316  00006A                     _seg1:
   317                           	callstack 0
   318  00006A                     	ds	2
   319  00006C                     _write_char:
   320                           	callstack 0
   321  00006C                     	ds	1
   322                           
   323                           	psect	dataCOMRAM
   324  00006D                     __pdataCOMRAM:
   325                           	callstack 0
   326  00006D                     tela_configura@F2614:
   327                           	callstack 0
   328  00006D                     	ds	9
   329  000076                     _eeprom_address:
   330                           	callstack 0
   331  000076                     	ds	1
   332  000077                     _mili2:
   333                           	callstack 0
   334  000077                     	ds	1
   335  000078                     _mili1:
   336                           	callstack 0
   337  000078                     	ds	1
   338                           
   339                           	psect	dataBANK0
   340  0000FC                     __pdataBANK0:
   341                           	callstack 0
   342  0000FC                     _minConfigura:
   343                           	callstack 0
   344  0000FC                     	ds	2
   345                           
   346                           	psect	bssBANK1
   347  000100                     __pbssBANK1:
   348                           	callstack 0
   349  000100                     	ds	16
   350  000110                     	ds	16
   351  000120                     	ds	16
   352  000130                     	ds	16
   353  000140                     	ds	16
   354  000150                     	ds	16
   355  000160                     atualiza_tempo@F2610:
   356                           	callstack 0
   357  000160                     	ds	16
   358  000170                     atualiza_tempo@F2608:
   359                           	callstack 0
   360  000170                     	ds	16
   361  000180                     atualiza_tempo@F2606:
   362                           	callstack 0
   363  000180                     	ds	16
   364                           
   365                           	psect	cstackBANK0
   366  000080                     __pcstackBANK0:
   367                           	callstack 0
   368  000080                     ?_strlen:
   369                           	callstack 0
   370  000080                     ?___lwdiv:
   371                           	callstack 0
   372  000080                     upper@c:
   373                           	callstack 0
   374  000080                     lower@c:
   375                           	callstack 0
   376  000080                     EEPROM_Write@address:
   377                           	callstack 0
   378  000080                     EEPROM_Read@address:
   379                           	callstack 0
   380  000080                     ___lwdiv@dividend:
   381                           	callstack 0
   382  000080                     strcat@to:
   383                           	callstack 0
   384  000080                     strlen@s:
   385                           	callstack 0
   386                           
   387                           ; 2 bytes @ 0x0
   388  000080                     	ds	2
   389  000082                     EEPROM_Write@data:
   390                           	callstack 0
   391  000082                     LCD_PutCmd@c:
   392                           	callstack 0
   393  000082                     LCD_PutChar@c:
   394                           	callstack 0
   395  000082                     ___lwdiv@divisor:
   396                           	callstack 0
   397  000082                     strcat@from:
   398                           	callstack 0
   399  000082                     strlen@cp:
   400                           	callstack 0
   401                           
   402                           ; 2 bytes @ 0x2
   403  000082                     	ds	1
   404  000083                     
   405                           ; 1 bytes @ 0x3
   406  000083                     	ds	1
   407  000084                     escreve_tela@mensagem:
   408                           	callstack 0
   409  000084                     ___lwdiv@quotient:
   410                           	callstack 0
   411  000084                     strcat@cp:
   412                           	callstack 0
   413                           
   414                           ; 2 bytes @ 0x4
   415  000084                     	ds	2
   416  000086                     escreve_tela@linha:
   417                           	callstack 0
   418  000086                     ___lwdiv@counter:
   419                           	callstack 0
   420                           
   421                           ; 1 bytes @ 0x6
   422  000086                     	ds	1
   423  000087                     ??_escreve_tela:
   424  000087                     ?___lwmod:
   425                           	callstack 0
   426  000087                     ___lwmod@dividend:
   427                           	callstack 0
   428                           
   429                           ; 2 bytes @ 0x7
   430  000087                     	ds	2
   431  000089                     ___lwmod@divisor:
   432                           	callstack 0
   433                           
   434                           ; 2 bytes @ 0x9
   435  000089                     	ds	1
   436  00008A                     escreve_tela@i:
   437                           	callstack 0
   438                           
   439                           ; 1 bytes @ 0xA
   440  00008A                     	ds	1
   441  00008B                     ___lwmod@counter:
   442                           	callstack 0
   443                           
   444                           ; 1 bytes @ 0xB
   445  00008B                     	ds	1
   446  00008C                     ?_sprintf:
   447                           	callstack 0
   448  00008C                     sprintf@sp:
   449                           	callstack 0
   450                           
   451                           ; 2 bytes @ 0xC
   452  00008C                     	ds	2
   453  00008E                     sprintf@f:
   454                           	callstack 0
   455                           
   456                           ; 2 bytes @ 0xE
   457  00008E                     	ds	4
   458  000092                     ??_sprintf:
   459                           
   460                           ; 1 bytes @ 0x12
   461  000092                     	ds	1
   462  000093                     sprintf@ap:
   463                           	callstack 0
   464                           
   465                           ; 2 bytes @ 0x13
   466  000093                     	ds	2
   467  000095                     sprintf@flag:
   468                           	callstack 0
   469                           
   470                           ; 1 bytes @ 0x15
   471  000095                     	ds	1
   472  000096                     sprintf@prec:
   473                           	callstack 0
   474                           
   475                           ; 1 bytes @ 0x16
   476  000096                     	ds	1
   477  000097                     sprintf@val:
   478                           	callstack 0
   479                           
   480                           ; 2 bytes @ 0x17
   481  000097                     	ds	2
   482  000099                     sprintf@c:
   483                           	callstack 0
   484                           
   485                           ; 1 bytes @ 0x19
   486  000099                     	ds	1
   487  00009A                     ??_tela_configura:
   488  00009A                     tela_placar@aux:
   489                           	callstack 0
   490                           
   491                           ; 16 bytes @ 0x1A
   492  00009A                     	ds	1
   493  00009B                     tela_configura@mensagem:
   494                           	callstack 0
   495                           
   496                           ; 9 bytes @ 0x1B
   497  00009B                     	ds	9
   498  0000A4                     tela_configura@i:
   499                           	callstack 0
   500                           
   501                           ; 2 bytes @ 0x24
   502  0000A4                     	ds	2
   503  0000A6                     tela_configura@i_624:
   504                           	callstack 0
   505                           
   506                           ; 2 bytes @ 0x26
   507  0000A6                     	ds	2
   508  0000A8                     tela_configura@i_625:
   509                           	callstack 0
   510                           
   511                           ; 2 bytes @ 0x28
   512  0000A8                     	ds	2
   513  0000AA                     tela_configura@aux1:
   514                           	callstack 0
   515  0000AA                     tela_placar@aux1:
   516                           	callstack 0
   517                           
   518                           ; 16 bytes @ 0x2A
   519  0000AA                     	ds	16
   520  0000BA                     tela_placar@aux2:
   521                           	callstack 0
   522                           
   523                           ; 16 bytes @ 0x3A
   524  0000BA                     	ds	16
   525  0000CA                     tela_placar@aux3:
   526                           	callstack 0
   527                           
   528                           ; 16 bytes @ 0x4A
   529  0000CA                     	ds	16
   530  0000DA                     tela_placar@aux4:
   531                           	callstack 0
   532                           
   533                           ; 16 bytes @ 0x5A
   534  0000DA                     	ds	16
   535  0000EA                     tela_placar@aux5:
   536                           	callstack 0
   537                           
   538                           ; 16 bytes @ 0x6A
   539  0000EA                     	ds	16
   540  0000FA                     ??_main:
   541                           
   542                           ; 1 bytes @ 0x7A
   543  0000FA                     	ds	2
   544                           
   545                           	psect	cstackCOMRAM
   546  000001                     __pcstackCOMRAM:
   547                           	callstack 0
   548  000001                     ??_bipa:
   549  000001                     ?i2___lwdiv:
   550                           	callstack 0
   551  000001                     ?i2_strlen:
   552                           	callstack 0
   553  000001                     i2upper@c:
   554                           	callstack 0
   555  000001                     i2lower@c:
   556                           	callstack 0
   557  000001                     i2___lwdiv@dividend:
   558                           	callstack 0
   559  000001                     i2strcat@to:
   560                           	callstack 0
   561  000001                     i2strlen@s:
   562                           	callstack 0
   563                           
   564                           ; 2 bytes @ 0x0
   565  000001                     	ds	2
   566  000003                     i2LCD_PutCmd@c:
   567                           	callstack 0
   568  000003                     i2LCD_PutChar@c:
   569                           	callstack 0
   570  000003                     i2___lwdiv@divisor:
   571                           	callstack 0
   572  000003                     i2strcat@from:
   573                           	callstack 0
   574  000003                     i2strlen@cp:
   575                           	callstack 0
   576                           
   577                           ; 2 bytes @ 0x2
   578  000003                     	ds	2
   579  000005                     i2escreve_tela@mensagem:
   580                           	callstack 0
   581  000005                     i2___lwdiv@quotient:
   582                           	callstack 0
   583  000005                     i2strcat@cp:
   584                           	callstack 0
   585                           
   586                           ; 2 bytes @ 0x4
   587  000005                     	ds	2
   588  000007                     i2escreve_tela@linha:
   589                           	callstack 0
   590  000007                     i2___lwdiv@counter:
   591                           	callstack 0
   592                           
   593                           ; 1 bytes @ 0x6
   594  000007                     	ds	1
   595  000008                     ??i2_escreve_tela:
   596  000008                     ?i2___lwmod:
   597                           	callstack 0
   598  000008                     i2___lwmod@dividend:
   599                           	callstack 0
   600                           
   601                           ; 2 bytes @ 0x7
   602  000008                     	ds	2
   603  00000A                     i2___lwmod@divisor:
   604                           	callstack 0
   605                           
   606                           ; 2 bytes @ 0x9
   607  00000A                     	ds	1
   608  00000B                     i2escreve_tela@i:
   609                           	callstack 0
   610                           
   611                           ; 1 bytes @ 0xA
   612  00000B                     	ds	1
   613  00000C                     i2___lwmod@counter:
   614                           	callstack 0
   615                           
   616                           ; 1 bytes @ 0xB
   617  00000C                     	ds	1
   618  00000D                     ?i2_sprintf:
   619                           	callstack 0
   620  00000D                     i2sprintf@sp:
   621                           	callstack 0
   622                           
   623                           ; 2 bytes @ 0xC
   624  00000D                     	ds	2
   625  00000F                     i2sprintf@f:
   626                           	callstack 0
   627                           
   628                           ; 2 bytes @ 0xE
   629  00000F                     	ds	4
   630  000013                     ??i2_sprintf:
   631                           
   632                           ; 1 bytes @ 0x12
   633  000013                     	ds	1
   634  000014                     i2sprintf@ap:
   635                           	callstack 0
   636                           
   637                           ; 2 bytes @ 0x13
   638  000014                     	ds	2
   639  000016                     i2sprintf@flag:
   640                           	callstack 0
   641                           
   642                           ; 1 bytes @ 0x15
   643  000016                     	ds	1
   644  000017                     i2sprintf@prec:
   645                           	callstack 0
   646                           
   647                           ; 1 bytes @ 0x16
   648  000017                     	ds	1
   649  000018                     i2sprintf@val:
   650                           	callstack 0
   651                           
   652                           ; 2 bytes @ 0x17
   653  000018                     	ds	2
   654  00001A                     i2sprintf@c:
   655                           	callstack 0
   656                           
   657                           ; 1 bytes @ 0x19
   658  00001A                     	ds	1
   659  00001B                     ??_atualiza_tempo:
   660                           
   661                           ; 1 bytes @ 0x1A
   662  00001B                     	ds	1
   663  00001C                     atualiza_tempo@aux:
   664                           	callstack 0
   665                           
   666                           ; 16 bytes @ 0x1B
   667  00001C                     	ds	16
   668  00002C                     atualiza_tempo@aux1:
   669                           	callstack 0
   670                           
   671                           ; 16 bytes @ 0x2B
   672  00002C                     	ds	16
   673  00003C                     atualiza_tempo@aux2:
   674                           	callstack 0
   675                           
   676                           ; 16 bytes @ 0x3B
   677  00003C                     	ds	16
   678  00004C                     atualiza_tempo@i:
   679                           	callstack 0
   680                           
   681                           ; 2 bytes @ 0x4B
   682  00004C                     	ds	2
   683  00004E                     ??_interrupcoes:
   684                           
   685                           ; 1 bytes @ 0x4D
   686  00004E                     	ds	14
   687                           
   688 ;;
   689 ;;Main: autosize = 0, tempsize = 2, incstack = 0, save=0
   690 ;;
   691 ;; *************** function _main *****************
   692 ;; Defined at:
   693 ;;		line 404 in file "xadrez_main.c"
   694 ;; Parameters:    Size  Location     Type
   695 ;;		None
   696 ;; Auto vars:     Size  Location     Type
   697 ;;		None
   698 ;; Return value:  Size  Location     Type
   699 ;;                  1    wreg      void 
   700 ;; Registers used:
   701 ;;		wreg, fsr0l, fsr0h, fsr1l, fsr1h, fsr2l, fsr2h, status,2, status,0, tblptrl, tblptrh, tblptru, prodl, prodh, cstack
   702 ;; Tracked objects:
   703 ;;		On entry : 0/0
   704 ;;		On exit  : 0/0
   705 ;;		Unchanged: 0/0
   706 ;; Data sizes:     COMRAM   BANK0   BANK1   BANK2   BANK3   BANK4   BANK5
   707 ;;      Params:         0       0       0       0       0       0       0
   708 ;;      Locals:         0       0       0       0       0       0       0
   709 ;;      Temps:          0       2       0       0       0       0       0
   710 ;;      Totals:         0       2       0       0       0       0       0
   711 ;;Total ram usage:        2 bytes
   712 ;; Hardware stack levels required when called: 10
   713 ;; This function calls:
   714 ;;		_EEPROM_Read
   715 ;;		_EEPROM_Write
   716 ;;		_LCD_Init
   717 ;;		_inicia_registradores
   718 ;;		_passa_jogada
   719 ;;		_tela_configura
   720 ;;		_tela_placar
   721 ;; This function is called by:
   722 ;;		Startup code after reset
   723 ;; This function uses a non-reentrant model
   724 ;;
   725                           
   726                           	psect	text0
   727  000D58                     __ptext0:
   728                           	callstack 0
   729  000D58                     _main:
   730                           	callstack 21
   731  000D58                     
   732                           ;xadrez_main.c: 405: inicia_registradores();
   733  000D58  EC4B  F00E         	call	_inicia_registradores	;wreg free
   734                           
   735                           ;xadrez_main.c: 406: read_char = EEPROM_Read(0x00);
   736  000D5C  0E00               	movlw	0
   737  000D5E  0100               	movlb	0	; () banked
   738  000D60  6F81               	movwf	(EEPROM_Read@address+1)& (0+255),b
   739  000D62  0E00               	movlw	0
   740  000D64  6F80               	movwf	EEPROM_Read@address& (0+255),b
   741  000D66  EC6C  F00E         	call	_EEPROM_Read	;wreg free
   742  000D6A  0100               	movlb	0	; () banked
   743  000D6C  6FFE               	movwf	_read_char& (0+255),b
   744  000D6E                     
   745                           ; BSR set to: 0
   746                           ;xadrez_main.c: 409: if(read_char == 0){
   747  000D6E  51FE               	movf	_read_char& (0+255),w,b
   748  000D70  A4D8               	btfss	status,2,c
   749  000D72  EFBD  F006         	goto	u2201
   750  000D76  EFBF  F006         	goto	u2200
   751  000D7A                     u2201:
   752  000D7A  EFC9  F006         	goto	l243
   753  000D7E                     u2200:
   754  000D7E                     
   755                           ; BSR set to: 0
   756                           ;xadrez_main.c: 410: min1 = 1;
   757  000D7E  0E00               	movlw	0
   758  000D80  6E67               	movwf	(_min1+1)^0,c
   759  000D82  0E01               	movlw	1
   760  000D84  6E66               	movwf	_min1^0,c
   761  000D86                     
   762                           ; BSR set to: 0
   763                           ;xadrez_main.c: 411: min2 = min1;
   764  000D86  C066  F064         	movff	_min1,_min2
   765  000D8A  C067  F065         	movff	_min1+1,_min2+1
   766                           
   767                           ;xadrez_main.c: 412: }else{
   768  000D8E  EFD3  F006         	goto	l2454
   769  000D92                     l243:
   770                           
   771                           ; BSR set to: 0
   772                           ;xadrez_main.c: 413: min1 = read_char;
   773  000D92  C0FE  F066         	movff	_read_char,_min1
   774  000D96  6A67               	clrf	(_min1+1)^0,c
   775                           
   776                           ;xadrez_main.c: 414: min2 = min1;
   777  000D98  C066  F064         	movff	_min1,_min2
   778  000D9C  C067  F065         	movff	_min1+1,_min2+1
   779                           
   780                           ;xadrez_main.c: 415: minConfigura = read_char;
   781  000DA0  C0FE  F0FC         	movff	_read_char,_minConfigura
   782  000DA4  6BFD               	clrf	(_minConfigura+1)& (0+255),b
   783  000DA6                     l2454:
   784                           
   785                           ; BSR set to: 0
   786                           ;xadrez_main.c: 416: };xadrez_main.c: 417: LCD_Init();
   787  000DA6  EC3F  F00B         	call	_LCD_Init	;wreg free
   788  000DAA                     
   789                           ;xadrez_main.c: 418: tela_placar();
   790  000DAA  EC1A  F003         	call	_tela_placar	;wreg free
   791  000DAE                     l2458:
   792                           
   793                           ;xadrez_main.c: 423: if(configura){
   794  000DAE  A079               	btfss	(_configura/(0+8))^0,_configura& (0+7),c
   795  000DB0  EFDC  F006         	goto	u2211
   796  000DB4  EFDE  F006         	goto	u2210
   797  000DB8                     u2211:
   798  000DB8  EF19  F007         	goto	l2476
   799  000DBC                     u2210:
   800  000DBC                     
   801                           ;xadrez_main.c: 424: if(!PORTAbits.RA4)
   802  000DBC  B880               	btfsc	128,4,c	;volatile
   803  000DBE  EFE3  F006         	goto	u2221
   804  000DC2  EFE5  F006         	goto	u2220
   805  000DC6                     u2221:
   806  000DC6  EFED  F006         	goto	l2464
   807  000DCA                     u2220:
   808  000DCA                     
   809                           ;xadrez_main.c: 425: _delay((unsigned long)((30)*(16000000/4000.0)));
   810  000DCA  0E9C               	movlw	156
   811  000DCC  0100               	movlb	0	; () banked
   812  000DCE  6FFA               	movwf	??_main& (0+255),b
   813  000DD0  0ED7               	movlw	215
   814  000DD2                     u2317:
   815  000DD2  2EE8               	decfsz	wreg,f,c
   816  000DD4  D7FE               	bra	u2317
   817  000DD6  2FFA               	decfsz	??_main& (0+255),f,b
   818  000DD8  D7FC               	bra	u2317
   819  000DDA                     l2464:
   820                           
   821                           ;xadrez_main.c: 426: if(!PORTAbits.RA4){
   822  000DDA  B880               	btfsc	128,4,c	;volatile
   823  000DDC  EFF2  F006         	goto	u2231
   824  000DE0  EFF4  F006         	goto	u2230
   825  000DE4                     u2231:
   826  000DE4  EF19  F007         	goto	l2476
   827  000DE8                     u2230:
   828  000DE8                     
   829                           ;xadrez_main.c: 427: if(minConfigura<60){
   830  000DE8  0100               	movlb	0	; () banked
   831  000DEA  BFFD               	btfsc	(_minConfigura+1)& (0+255),7,b
   832  000DEC  EF03  F007         	goto	u2240
   833  000DF0  51FD               	movf	(_minConfigura+1)& (0+255),w,b
   834  000DF2  E107               	bnz	u2241
   835  000DF4  0E3C               	movlw	60
   836  000DF6  5DFC               	subwf	_minConfigura& (0+255),w,b
   837  000DF8  B0D8               	btfsc	status,0,c
   838  000DFA  EF01  F007         	goto	u2241
   839  000DFE  EF03  F007         	goto	u2240
   840  000E02                     u2241:
   841  000E02  EF07  F007         	goto	l2470
   842  000E06                     u2240:
   843  000E06                     
   844                           ; BSR set to: 0
   845                           ;xadrez_main.c: 428: minConfigura++;
   846  000E06  4BFC               	infsnz	_minConfigura& (0+255),f,b
   847  000E08  2BFD               	incf	(_minConfigura+1)& (0+255),f,b
   848                           
   849                           ;xadrez_main.c: 430: }else{
   850  000E0A  EF0B  F007         	goto	l2472
   851  000E0E                     l2470:
   852                           
   853                           ; BSR set to: 0
   854                           ;xadrez_main.c: 431: minConfigura=1;
   855  000E0E  0E00               	movlw	0
   856  000E10  6FFD               	movwf	(_minConfigura+1)& (0+255),b
   857  000E12  0E01               	movlw	1
   858  000E14  6FFC               	movwf	_minConfigura& (0+255),b
   859  000E16                     l2472:
   860                           
   861                           ; BSR set to: 0
   862                           ;xadrez_main.c: 432: };xadrez_main.c: 433: tela_configura();
   863  000E16  EC26  F009         	call	_tela_configura	;wreg free
   864  000E1A                     
   865                           ;xadrez_main.c: 434: _delay((unsigned long)((350)*(16000000/4000.0)));
   866  000E1A  0E08               	movlw	8
   867  000E1C  0100               	movlb	0	; () banked
   868  000E1E  6FFB               	movwf	(??_main+1)& (0+255),b
   869  000E20  0E1B               	movlw	27
   870  000E22  6FFA               	movwf	??_main& (0+255),b
   871  000E24  0E27               	movlw	39
   872  000E26                     u2327:
   873  000E26  2EE8               	decfsz	wreg,f,c
   874  000E28  D7FE               	bra	u2327
   875  000E2A  2FFA               	decfsz	??_main& (0+255),f,b
   876  000E2C  D7FC               	bra	u2327
   877  000E2E  2FFB               	decfsz	(??_main+1)& (0+255),f,b
   878  000E30  D7FA               	bra	u2327
   879  000E32                     l2476:
   880                           
   881                           ;xadrez_main.c: 435: };xadrez_main.c: 437: };xadrez_main.c: 438: if(mainEventFlag & 0x02
      +                          L){
   882  000E32  A260               	btfss	_mainEventFlag^0,1,c	;volatile
   883  000E34  EF1E  F007         	goto	u2251
   884  000E38  EF20  F007         	goto	u2250
   885  000E3C                     u2251:
   886  000E3C  EF3D  F007         	goto	l2490
   887  000E40                     u2250:
   888  000E40                     
   889                           ;xadrez_main.c: 439: _delay((unsigned long)((30)*(16000000/4000.0)));
   890  000E40  0E9C               	movlw	156
   891  000E42  0100               	movlb	0	; () banked
   892  000E44  6FFA               	movwf	??_main& (0+255),b
   893  000E46  0ED7               	movlw	215
   894  000E48                     u2337:
   895  000E48  2EE8               	decfsz	wreg,f,c
   896  000E4A  D7FE               	bra	u2337
   897  000E4C  2FFA               	decfsz	??_main& (0+255),f,b
   898  000E4E  D7FC               	bra	u2337
   899  000E50                     
   900                           ;xadrez_main.c: 440: mainEventFlag &= ~0x02L;
   901  000E50  9260               	bcf	_mainEventFlag^0,1,c	;volatile
   902  000E52                     
   903                           ;xadrez_main.c: 441: if(PORTBbits.RB1 == 1){
   904  000E52  A281               	btfss	129,1,c	;volatile
   905  000E54  EF2E  F007         	goto	u2261
   906  000E58  EF30  F007         	goto	u2260
   907  000E5C                     u2261:
   908  000E5C  EF3D  F007         	goto	l2490
   909  000E60                     u2260:
   910  000E60                     
   911                           ;xadrez_main.c: 442: if(!inicia){
   912  000E60  B679               	btfsc	(_inicia/(0+8))^0,_inicia& (0+7),c
   913  000E62  EF35  F007         	goto	u2271
   914  000E66  EF37  F007         	goto	u2270
   915  000E6A                     u2271:
   916  000E6A  EF3B  F007         	goto	l2488
   917  000E6E                     u2270:
   918  000E6E                     
   919                           ;xadrez_main.c: 443: inicia = 1;
   920  000E6E  8679               	bsf	(_inicia/(0+8))^0,_inicia& (0+7),c
   921                           
   922                           ;xadrez_main.c: 444: T0CONbits.TMR0ON = 1;
   923  000E70  8ED5               	bsf	213,7,c	;volatile
   924                           
   925                           ;xadrez_main.c: 445: }
   926  000E72  EF3D  F007         	goto	l2490
   927  000E76                     l2488:
   928                           
   929                           ;xadrez_main.c: 446: else;xadrez_main.c: 447: passa_jogada();
   930  000E76  EC5B  F00E         	call	_passa_jogada	;wreg free
   931  000E7A                     l2490:
   932                           
   933                           ;xadrez_main.c: 448: };xadrez_main.c: 449: };xadrez_main.c: 450: if(mainEventFlag & 0x01
      +                          L){
   934  000E7A  A060               	btfss	_mainEventFlag^0,0,c	;volatile
   935  000E7C  EF42  F007         	goto	u2281
   936  000E80  EF44  F007         	goto	u2280
   937  000E84                     u2281:
   938  000E84  EFD7  F006         	goto	l2458
   939  000E88                     u2280:
   940  000E88                     
   941                           ;xadrez_main.c: 451: _delay((unsigned long)((30)*(16000000/4000.0)));
   942  000E88  0E9C               	movlw	156
   943  000E8A  0100               	movlb	0	; () banked
   944  000E8C  6FFA               	movwf	??_main& (0+255),b
   945  000E8E  0ED7               	movlw	215
   946  000E90                     u2347:
   947  000E90  2EE8               	decfsz	wreg,f,c
   948  000E92  D7FE               	bra	u2347
   949  000E94  2FFA               	decfsz	??_main& (0+255),f,b
   950  000E96  D7FC               	bra	u2347
   951  000E98                     
   952                           ;xadrez_main.c: 452: mainEventFlag &=~0x01L;
   953  000E98  9060               	bcf	_mainEventFlag^0,0,c	;volatile
   954  000E9A                     
   955                           ;xadrez_main.c: 453: if(PORTBbits.RB0 == 1){
   956  000E9A  A081               	btfss	129,0,c	;volatile
   957  000E9C  EF52  F007         	goto	u2291
   958  000EA0  EF54  F007         	goto	u2290
   959  000EA4                     u2291:
   960  000EA4  EFD7  F006         	goto	l2458
   961  000EA8                     u2290:
   962  000EA8                     
   963                           ;xadrez_main.c: 454: if(!configura){
   964  000EA8  B079               	btfsc	(_configura/(0+8))^0,_configura& (0+7),c
   965  000EAA  EF59  F007         	goto	u2301
   966  000EAE  EF5B  F007         	goto	u2300
   967  000EB2                     u2301:
   968  000EB2  EF6A  F007         	goto	l257
   969  000EB6                     u2300:
   970  000EB6                     
   971                           ;xadrez_main.c: 455: configura = 1;
   972  000EB6  8079               	bsf	(_configura/(0+8))^0,_configura& (0+7),c
   973                           
   974                           ;xadrez_main.c: 456: inicia = 0;
   975  000EB8  9679               	bcf	(_inicia/(0+8))^0,_inicia& (0+7),c
   976                           
   977                           ;xadrez_main.c: 457: T0CONbits.TMR0ON = 0;
   978  000EBA  9ED5               	bcf	213,7,c	;volatile
   979  000EBC                     
   980                           ;xadrez_main.c: 458: seg1 = 0;
   981  000EBC  0E00               	movlw	0
   982  000EBE  6E6B               	movwf	(_seg1+1)^0,c
   983  000EC0  0E00               	movlw	0
   984  000EC2  6E6A               	movwf	_seg1^0,c
   985                           
   986                           ;xadrez_main.c: 459: seg2 = 0;
   987  000EC4  0E00               	movlw	0
   988  000EC6  6E69               	movwf	(_seg2+1)^0,c
   989  000EC8  0E00               	movlw	0
   990  000ECA  6E68               	movwf	_seg2^0,c
   991  000ECC                     
   992                           ;xadrez_main.c: 460: tela_configura();
   993  000ECC  EC26  F009         	call	_tela_configura	;wreg free
   994                           
   995                           ;xadrez_main.c: 461: }else{
   996  000ED0  EFD7  F006         	goto	l2458
   997  000ED4                     l257:
   998                           
   999                           ;xadrez_main.c: 462: configura = 0;
  1000  000ED4  9079               	bcf	(_configura/(0+8))^0,_configura& (0+7),c
  1001  000ED6                     
  1002                           ;xadrez_main.c: 464: EEPROM_Write(0x00,minConfigura);
  1003  000ED6  0E00               	movlw	0
  1004  000ED8  0100               	movlb	0	; () banked
  1005  000EDA  6F81               	movwf	(EEPROM_Write@address+1)& (0+255),b
  1006  000EDC  0E00               	movlw	0
  1007  000EDE  6F80               	movwf	EEPROM_Write@address& (0+255),b
  1008  000EE0  C0FC  F082         	movff	_minConfigura,EEPROM_Write@data
  1009  000EE4  ECEC  F00D         	call	_EEPROM_Write	;wreg free
  1010  000EE8                     
  1011                           ;xadrez_main.c: 465: min2=minConfigura;
  1012  000EE8  C0FC  F064         	movff	_minConfigura,_min2
  1013  000EEC  C0FD  F065         	movff	_minConfigura+1,_min2+1
  1014  000EF0                     
  1015                           ;xadrez_main.c: 466: min1=minConfigura;
  1016  000EF0  C0FC  F066         	movff	_minConfigura,_min1
  1017  000EF4  C0FD  F067         	movff	_minConfigura+1,_min1+1
  1018  000EF8                     
  1019                           ;xadrez_main.c: 467: tela_placar();
  1020  000EF8  EC1A  F003         	call	_tela_placar	;wreg free
  1021  000EFC  00FF               	reset		;# 
  1022  000EFE  EFD7  F006         	goto	l2458
  1023  000F02  EF07  F000         	goto	start
  1024  000F06                     __end_of_main:
  1025                           	callstack 0
  1026                           
  1027 ;; *************** function _tela_placar *****************
  1028 ;; Defined at:
  1029 ;;		line 323 in file "xadrez_main.c"
  1030 ;; Parameters:    Size  Location     Type
  1031 ;;		None
  1032 ;; Auto vars:     Size  Location     Type
  1033 ;;  aux5           16  106[BANK0 ] unsigned char [16]
  1034 ;;  aux4           16   90[BANK0 ] unsigned char [16]
  1035 ;;  aux3           16   74[BANK0 ] unsigned char [16]
  1036 ;;  aux2           16   58[BANK0 ] unsigned char [16]
  1037 ;;  aux1           16   42[BANK0 ] unsigned char [16]
  1038 ;;  aux            16   26[BANK0 ] unsigned char [16]
  1039 ;; Return value:  Size  Location     Type
  1040 ;;                  1    wreg      void 
  1041 ;; Registers used:
  1042 ;;		wreg, fsr0l, fsr0h, fsr2l, fsr2h, status,2, status,0, tblptrl, tblptrh, tblptru, prodl, prodh, cstack
  1043 ;; Tracked objects:
  1044 ;;		On entry : 0/0
  1045 ;;		On exit  : 0/0
  1046 ;;		Unchanged: 0/0
  1047 ;; Data sizes:     COMRAM   BANK0   BANK1   BANK2   BANK3   BANK4   BANK5
  1048 ;;      Params:         0       0       0       0       0       0       0
  1049 ;;      Locals:         0      96       0       0       0       0       0
  1050 ;;      Temps:          0       0       0       0       0       0       0
  1051 ;;      Totals:         0      96       0       0       0       0       0
  1052 ;;Total ram usage:       96 bytes
  1053 ;; Hardware stack levels used: 1
  1054 ;; Hardware stack levels required when called: 9
  1055 ;; This function calls:
  1056 ;;		_LCD_PutCmd
  1057 ;;		_escreve_tela
  1058 ;;		_sprintf
  1059 ;;		_strcat
  1060 ;; This function is called by:
  1061 ;;		_main
  1062 ;; This function uses a non-reentrant model
  1063 ;;
  1064                           
  1065                           	psect	text1
  1066  000634                     __ptext1:
  1067                           	callstack 0
  1068  000634                     _tela_placar:
  1069                           	callstack 21
  1070  000634                     
  1071                           ;xadrez_main.c: 324: char aux[16]={0};
  1072  000634  EE20  F09A         	lfsr	2,tela_placar@aux
  1073  000638  0E0F               	movlw	15
  1074  00063A                     u1931:
  1075  00063A  6ADE               	clrf	postinc2,c
  1076  00063C  06E8               	decf	wreg,f,c
  1077  00063E  E2FD               	bc	u1931
  1078                           
  1079                           ;xadrez_main.c: 325: char aux1[16]={0};
  1080  000640  EE20  F0AA         	lfsr	2,tela_placar@aux1
  1081  000644  0E0F               	movlw	15
  1082  000646                     u1941:
  1083  000646  6ADE               	clrf	postinc2,c
  1084  000648  06E8               	decf	wreg,f,c
  1085  00064A  E2FD               	bc	u1941
  1086                           
  1087                           ;xadrez_main.c: 326: char aux2[16]={0};
  1088  00064C  EE20  F0BA         	lfsr	2,tela_placar@aux2
  1089  000650  0E0F               	movlw	15
  1090  000652                     u1951:
  1091  000652  6ADE               	clrf	postinc2,c
  1092  000654  06E8               	decf	wreg,f,c
  1093  000656  E2FD               	bc	u1951
  1094                           
  1095                           ;xadrez_main.c: 327: char aux3[16]={0};
  1096  000658  EE20  F0CA         	lfsr	2,tela_placar@aux3
  1097  00065C  0E0F               	movlw	15
  1098  00065E                     u1961:
  1099  00065E  6ADE               	clrf	postinc2,c
  1100  000660  06E8               	decf	wreg,f,c
  1101  000662  E2FD               	bc	u1961
  1102                           
  1103                           ;xadrez_main.c: 328: char aux4[16]={0};
  1104  000664  EE20  F0DA         	lfsr	2,tela_placar@aux4
  1105  000668  0E0F               	movlw	15
  1106  00066A                     u1971:
  1107  00066A  6ADE               	clrf	postinc2,c
  1108  00066C  06E8               	decf	wreg,f,c
  1109  00066E  E2FD               	bc	u1971
  1110                           
  1111                           ;xadrez_main.c: 329: char aux5[16]={0};
  1112  000670  EE20  F0EA         	lfsr	2,tela_placar@aux5
  1113  000674  0E0F               	movlw	15
  1114  000676                     u1981:
  1115  000676  6ADE               	clrf	postinc2,c
  1116  000678  06E8               	decf	wreg,f,c
  1117  00067A  E2FD               	bc	u1981
  1118  00067C                     
  1119                           ;xadrez_main.c: 331: LCD_PutCmd(0x01);
  1120  00067C  0E00               	movlw	0
  1121  00067E  0100               	movlb	0	; () banked
  1122  000680  6F83               	movwf	(LCD_PutCmd@c+1)& (0+255),b
  1123  000682  0E01               	movlw	1
  1124  000684  6F82               	movwf	LCD_PutCmd@c& (0+255),b
  1125  000686  EC29  F00E         	call	_LCD_PutCmd	;wreg free
  1126  00068A                     
  1127                           ;xadrez_main.c: 334: if(min1<10){
  1128  00068A  BE67               	btfsc	(_min1+1)^0,7,c
  1129  00068C  EF53  F003         	goto	u1990
  1130  000690  5067               	movf	(_min1+1)^0,w,c
  1131  000692  E107               	bnz	u1991
  1132  000694  0E0A               	movlw	10
  1133  000696  5C66               	subwf	_min1^0,w,c
  1134  000698  B0D8               	btfsc	status,0,c
  1135  00069A  EF51  F003         	goto	u1991
  1136  00069E  EF53  F003         	goto	u1990
  1137  0006A2                     u1991:
  1138  0006A2  EF64  F003         	goto	l2284
  1139  0006A6                     u1990:
  1140  0006A6                     
  1141                           ;xadrez_main.c: 335: sprintf(aux1, "0%d", min1);
  1142  0006A6  0EAA               	movlw	low tela_placar@aux1
  1143  0006A8  0100               	movlb	0	; () banked
  1144  0006AA  6F8C               	movwf	sprintf@sp& (0+255),b
  1145  0006AC  0E00               	movlw	high tela_placar@aux1
  1146  0006AE  6F8D               	movwf	(sprintf@sp+1)& (0+255),b
  1147  0006B0  0E2A               	movlw	low STR_5
  1148  0006B2  6F8E               	movwf	sprintf@f& (0+255),b
  1149  0006B4  0E06               	movlw	high STR_5
  1150  0006B6  6F8F               	movwf	(sprintf@f+1)& (0+255),b
  1151  0006B8  C066  F090         	movff	_min1,?_sprintf+4
  1152  0006BC  C067  F091         	movff	_min1+1,?_sprintf+5
  1153  0006C0  EC83  F007         	call	_sprintf	;wreg free
  1154                           
  1155                           ;xadrez_main.c: 336: }else{
  1156  0006C4  EF73  F003         	goto	l2286
  1157  0006C8                     l2284:
  1158                           
  1159                           ;xadrez_main.c: 337: sprintf(aux1, "%d", min1);
  1160  0006C8  0EAA               	movlw	low tela_placar@aux1
  1161  0006CA  0100               	movlb	0	; () banked
  1162  0006CC  6F8C               	movwf	sprintf@sp& (0+255),b
  1163  0006CE  0E00               	movlw	high tela_placar@aux1
  1164  0006D0  6F8D               	movwf	(sprintf@sp+1)& (0+255),b
  1165  0006D2  0E2B               	movlw	low (STR_5+1)
  1166  0006D4  6F8E               	movwf	sprintf@f& (0+255),b
  1167  0006D6  0E06               	movlw	high (STR_5+1)
  1168  0006D8  6F8F               	movwf	(sprintf@f+1)& (0+255),b
  1169  0006DA  C066  F090         	movff	_min1,?_sprintf+4
  1170  0006DE  C067  F091         	movff	_min1+1,?_sprintf+5
  1171  0006E2  EC83  F007         	call	_sprintf	;wreg free
  1172  0006E6                     l2286:
  1173                           
  1174                           ;xadrez_main.c: 338: };xadrez_main.c: 339: if(seg1<10){
  1175  0006E6  BE6B               	btfsc	(_seg1+1)^0,7,c
  1176  0006E8  EF81  F003         	goto	u2000
  1177  0006EC  506B               	movf	(_seg1+1)^0,w,c
  1178  0006EE  E107               	bnz	u2001
  1179  0006F0  0E0A               	movlw	10
  1180  0006F2  5C6A               	subwf	_seg1^0,w,c
  1181  0006F4  B0D8               	btfsc	status,0,c
  1182  0006F6  EF7F  F003         	goto	u2001
  1183  0006FA  EF81  F003         	goto	u2000
  1184  0006FE                     u2001:
  1185  0006FE  EF92  F003         	goto	l2290
  1186  000702                     u2000:
  1187  000702                     
  1188                           ;xadrez_main.c: 340: sprintf(aux2, "0%d", seg1);
  1189  000702  0EBA               	movlw	low tela_placar@aux2
  1190  000704  0100               	movlb	0	; () banked
  1191  000706  6F8C               	movwf	sprintf@sp& (0+255),b
  1192  000708  0E00               	movlw	high tela_placar@aux2
  1193  00070A  6F8D               	movwf	(sprintf@sp+1)& (0+255),b
  1194  00070C  0E2A               	movlw	low STR_5
  1195  00070E  6F8E               	movwf	sprintf@f& (0+255),b
  1196  000710  0E06               	movlw	high STR_5
  1197  000712  6F8F               	movwf	(sprintf@f+1)& (0+255),b
  1198  000714  C06A  F090         	movff	_seg1,?_sprintf+4
  1199  000718  C06B  F091         	movff	_seg1+1,?_sprintf+5
  1200  00071C  EC83  F007         	call	_sprintf	;wreg free
  1201                           
  1202                           ;xadrez_main.c: 341: }else{
  1203  000720  EFA1  F003         	goto	l2292
  1204  000724                     l2290:
  1205                           
  1206                           ;xadrez_main.c: 342: sprintf(aux2, "%d", seg1);
  1207  000724  0EBA               	movlw	low tela_placar@aux2
  1208  000726  0100               	movlb	0	; () banked
  1209  000728  6F8C               	movwf	sprintf@sp& (0+255),b
  1210  00072A  0E00               	movlw	high tela_placar@aux2
  1211  00072C  6F8D               	movwf	(sprintf@sp+1)& (0+255),b
  1212  00072E  0E2B               	movlw	low (STR_5+1)
  1213  000730  6F8E               	movwf	sprintf@f& (0+255),b
  1214  000732  0E06               	movlw	high (STR_5+1)
  1215  000734  6F8F               	movwf	(sprintf@f+1)& (0+255),b
  1216  000736  C06A  F090         	movff	_seg1,?_sprintf+4
  1217  00073A  C06B  F091         	movff	_seg1+1,?_sprintf+5
  1218  00073E  EC83  F007         	call	_sprintf	;wreg free
  1219  000742                     l2292:
  1220                           
  1221                           ;xadrez_main.c: 343: };xadrez_main.c: 345: strcat(aux,aux1);
  1222  000742  0E9A               	movlw	low tela_placar@aux
  1223  000744  0100               	movlb	0	; () banked
  1224  000746  6F80               	movwf	strcat@to& (0+255),b
  1225  000748  0E00               	movlw	high tela_placar@aux
  1226  00074A  6F81               	movwf	(strcat@to+1)& (0+255),b
  1227  00074C  0EAA               	movlw	low tela_placar@aux1
  1228  00074E  6F82               	movwf	strcat@from& (0+255),b
  1229  000750  0E00               	movlw	high tela_placar@aux1
  1230  000752  6F83               	movwf	(strcat@from+1)& (0+255),b
  1231  000754  EC05  F00B         	call	_strcat	;wreg free
  1232  000758                     
  1233                           ;xadrez_main.c: 346: strcat(aux,":");
  1234  000758  0E9A               	movlw	low tela_placar@aux
  1235  00075A  0100               	movlb	0	; () banked
  1236  00075C  6F80               	movwf	strcat@to& (0+255),b
  1237  00075E  0E00               	movlw	high tela_placar@aux
  1238  000760  6F81               	movwf	(strcat@to+1)& (0+255),b
  1239  000762  0E2E               	movlw	low STR_13
  1240  000764  6F82               	movwf	strcat@from& (0+255),b
  1241  000766  0E06               	movlw	high STR_13
  1242  000768  6F83               	movwf	(strcat@from+1)& (0+255),b
  1243  00076A  EC05  F00B         	call	_strcat	;wreg free
  1244  00076E                     
  1245                           ;xadrez_main.c: 347: strcat(aux,aux2);
  1246  00076E  0E9A               	movlw	low tela_placar@aux
  1247  000770  0100               	movlb	0	; () banked
  1248  000772  6F80               	movwf	strcat@to& (0+255),b
  1249  000774  0E00               	movlw	high tela_placar@aux
  1250  000776  6F81               	movwf	(strcat@to+1)& (0+255),b
  1251  000778  0EBA               	movlw	low tela_placar@aux2
  1252  00077A  6F82               	movwf	strcat@from& (0+255),b
  1253  00077C  0E00               	movlw	high tela_placar@aux2
  1254  00077E  6F83               	movwf	(strcat@from+1)& (0+255),b
  1255  000780  EC05  F00B         	call	_strcat	;wreg free
  1256  000784                     
  1257                           ;xadrez_main.c: 348: strcat(aux,"-Jogador 1");
  1258  000784  0E9A               	movlw	low tela_placar@aux
  1259  000786  0100               	movlb	0	; () banked
  1260  000788  6F80               	movwf	strcat@to& (0+255),b
  1261  00078A  0E00               	movlw	high tela_placar@aux
  1262  00078C  6F81               	movwf	(strcat@to+1)& (0+255),b
  1263  00078E  0E0B               	movlw	low STR_22
  1264  000790  6F82               	movwf	strcat@from& (0+255),b
  1265  000792  0E06               	movlw	high STR_22
  1266  000794  6F83               	movwf	(strcat@from+1)& (0+255),b
  1267  000796  EC05  F00B         	call	_strcat	;wreg free
  1268  00079A                     
  1269                           ;xadrez_main.c: 349: escreve_tela(aux,0);
  1270  00079A  0E9A               	movlw	low tela_placar@aux
  1271  00079C  0100               	movlb	0	; () banked
  1272  00079E  6F84               	movwf	escreve_tela@mensagem& (0+255),b
  1273  0007A0  0E00               	movlw	high tela_placar@aux
  1274  0007A2  6F85               	movwf	(escreve_tela@mensagem+1)& (0+255),b
  1275  0007A4  0E00               	movlw	0
  1276  0007A6  6F86               	movwf	escreve_tela@linha& (0+255),b
  1277  0007A8  EC3D  F00A         	call	_escreve_tela	;wreg free
  1278  0007AC                     
  1279                           ;xadrez_main.c: 352: if(min2<10){
  1280  0007AC  BE65               	btfsc	(_min2+1)^0,7,c
  1281  0007AE  EFE4  F003         	goto	u2010
  1282  0007B2  5065               	movf	(_min2+1)^0,w,c
  1283  0007B4  E107               	bnz	u2011
  1284  0007B6  0E0A               	movlw	10
  1285  0007B8  5C64               	subwf	_min2^0,w,c
  1286  0007BA  B0D8               	btfsc	status,0,c
  1287  0007BC  EFE2  F003         	goto	u2011
  1288  0007C0  EFE4  F003         	goto	u2010
  1289  0007C4                     u2011:
  1290  0007C4  EFF5  F003         	goto	l2306
  1291  0007C8                     u2010:
  1292  0007C8                     
  1293                           ;xadrez_main.c: 353: sprintf(aux3, "0%d", min2);
  1294  0007C8  0ECA               	movlw	low tela_placar@aux3
  1295  0007CA  0100               	movlb	0	; () banked
  1296  0007CC  6F8C               	movwf	sprintf@sp& (0+255),b
  1297  0007CE  0E00               	movlw	high tela_placar@aux3
  1298  0007D0  6F8D               	movwf	(sprintf@sp+1)& (0+255),b
  1299  0007D2  0E2A               	movlw	low STR_5
  1300  0007D4  6F8E               	movwf	sprintf@f& (0+255),b
  1301  0007D6  0E06               	movlw	high STR_5
  1302  0007D8  6F8F               	movwf	(sprintf@f+1)& (0+255),b
  1303  0007DA  C064  F090         	movff	_min2,?_sprintf+4
  1304  0007DE  C065  F091         	movff	_min2+1,?_sprintf+5
  1305  0007E2  EC83  F007         	call	_sprintf	;wreg free
  1306                           
  1307                           ;xadrez_main.c: 354: }else{
  1308  0007E6  EF04  F004         	goto	l2308
  1309  0007EA                     l2306:
  1310                           
  1311                           ;xadrez_main.c: 355: sprintf(aux3, "%d", min2);
  1312  0007EA  0ECA               	movlw	low tela_placar@aux3
  1313  0007EC  0100               	movlb	0	; () banked
  1314  0007EE  6F8C               	movwf	sprintf@sp& (0+255),b
  1315  0007F0  0E00               	movlw	high tela_placar@aux3
  1316  0007F2  6F8D               	movwf	(sprintf@sp+1)& (0+255),b
  1317  0007F4  0E2B               	movlw	low (STR_5+1)
  1318  0007F6  6F8E               	movwf	sprintf@f& (0+255),b
  1319  0007F8  0E06               	movlw	high (STR_5+1)
  1320  0007FA  6F8F               	movwf	(sprintf@f+1)& (0+255),b
  1321  0007FC  C064  F090         	movff	_min2,?_sprintf+4
  1322  000800  C065  F091         	movff	_min2+1,?_sprintf+5
  1323  000804  EC83  F007         	call	_sprintf	;wreg free
  1324  000808                     l2308:
  1325                           
  1326                           ;xadrez_main.c: 356: };xadrez_main.c: 357: if(seg2<10){
  1327  000808  BE69               	btfsc	(_seg2+1)^0,7,c
  1328  00080A  EF12  F004         	goto	u2020
  1329  00080E  5069               	movf	(_seg2+1)^0,w,c
  1330  000810  E107               	bnz	u2021
  1331  000812  0E0A               	movlw	10
  1332  000814  5C68               	subwf	_seg2^0,w,c
  1333  000816  B0D8               	btfsc	status,0,c
  1334  000818  EF10  F004         	goto	u2021
  1335  00081C  EF12  F004         	goto	u2020
  1336  000820                     u2021:
  1337  000820  EF23  F004         	goto	l2312
  1338  000824                     u2020:
  1339  000824                     
  1340                           ;xadrez_main.c: 358: sprintf(aux4, "0%d", seg2);
  1341  000824  0EDA               	movlw	low tela_placar@aux4
  1342  000826  0100               	movlb	0	; () banked
  1343  000828  6F8C               	movwf	sprintf@sp& (0+255),b
  1344  00082A  0E00               	movlw	high tela_placar@aux4
  1345  00082C  6F8D               	movwf	(sprintf@sp+1)& (0+255),b
  1346  00082E  0E2A               	movlw	low STR_5
  1347  000830  6F8E               	movwf	sprintf@f& (0+255),b
  1348  000832  0E06               	movlw	high STR_5
  1349  000834  6F8F               	movwf	(sprintf@f+1)& (0+255),b
  1350  000836  C068  F090         	movff	_seg2,?_sprintf+4
  1351  00083A  C069  F091         	movff	_seg2+1,?_sprintf+5
  1352  00083E  EC83  F007         	call	_sprintf	;wreg free
  1353                           
  1354                           ;xadrez_main.c: 359: }else{
  1355  000842  EF32  F004         	goto	l2314
  1356  000846                     l2312:
  1357                           
  1358                           ;xadrez_main.c: 360: sprintf(aux4, "%d", seg2);
  1359  000846  0EDA               	movlw	low tela_placar@aux4
  1360  000848  0100               	movlb	0	; () banked
  1361  00084A  6F8C               	movwf	sprintf@sp& (0+255),b
  1362  00084C  0E00               	movlw	high tela_placar@aux4
  1363  00084E  6F8D               	movwf	(sprintf@sp+1)& (0+255),b
  1364  000850  0E2B               	movlw	low (STR_5+1)
  1365  000852  6F8E               	movwf	sprintf@f& (0+255),b
  1366  000854  0E06               	movlw	high (STR_5+1)
  1367  000856  6F8F               	movwf	(sprintf@f+1)& (0+255),b
  1368  000858  C068  F090         	movff	_seg2,?_sprintf+4
  1369  00085C  C069  F091         	movff	_seg2+1,?_sprintf+5
  1370  000860  EC83  F007         	call	_sprintf	;wreg free
  1371  000864                     l2314:
  1372                           
  1373                           ;xadrez_main.c: 361: };xadrez_main.c: 363: strcat(aux5,aux3);
  1374  000864  0EEA               	movlw	low tela_placar@aux5
  1375  000866  0100               	movlb	0	; () banked
  1376  000868  6F80               	movwf	strcat@to& (0+255),b
  1377  00086A  0E00               	movlw	high tela_placar@aux5
  1378  00086C  6F81               	movwf	(strcat@to+1)& (0+255),b
  1379  00086E  0ECA               	movlw	low tela_placar@aux3
  1380  000870  6F82               	movwf	strcat@from& (0+255),b
  1381  000872  0E00               	movlw	high tela_placar@aux3
  1382  000874  6F83               	movwf	(strcat@from+1)& (0+255),b
  1383  000876  EC05  F00B         	call	_strcat	;wreg free
  1384  00087A                     
  1385                           ;xadrez_main.c: 364: strcat(aux5,":");
  1386  00087A  0EEA               	movlw	low tela_placar@aux5
  1387  00087C  0100               	movlb	0	; () banked
  1388  00087E  6F80               	movwf	strcat@to& (0+255),b
  1389  000880  0E00               	movlw	high tela_placar@aux5
  1390  000882  6F81               	movwf	(strcat@to+1)& (0+255),b
  1391  000884  0E2E               	movlw	low STR_13
  1392  000886  6F82               	movwf	strcat@from& (0+255),b
  1393  000888  0E06               	movlw	high STR_13
  1394  00088A  6F83               	movwf	(strcat@from+1)& (0+255),b
  1395  00088C  EC05  F00B         	call	_strcat	;wreg free
  1396  000890                     
  1397                           ;xadrez_main.c: 365: strcat(aux5,aux4);
  1398  000890  0EEA               	movlw	low tela_placar@aux5
  1399  000892  0100               	movlb	0	; () banked
  1400  000894  6F80               	movwf	strcat@to& (0+255),b
  1401  000896  0E00               	movlw	high tela_placar@aux5
  1402  000898  6F81               	movwf	(strcat@to+1)& (0+255),b
  1403  00089A  0EDA               	movlw	low tela_placar@aux4
  1404  00089C  6F82               	movwf	strcat@from& (0+255),b
  1405  00089E  0E00               	movlw	high tela_placar@aux4
  1406  0008A0  6F83               	movwf	(strcat@from+1)& (0+255),b
  1407  0008A2  EC05  F00B         	call	_strcat	;wreg free
  1408  0008A6                     
  1409                           ;xadrez_main.c: 366: strcat(aux5,"-Jogador 2");
  1410  0008A6  0EEA               	movlw	low tela_placar@aux5
  1411  0008A8  0100               	movlb	0	; () banked
  1412  0008AA  6F80               	movwf	strcat@to& (0+255),b
  1413  0008AC  0E00               	movlw	high tela_placar@aux5
  1414  0008AE  6F81               	movwf	(strcat@to+1)& (0+255),b
  1415  0008B0  0E16               	movlw	low STR_28
  1416  0008B2  6F82               	movwf	strcat@from& (0+255),b
  1417  0008B4  0E06               	movlw	high STR_28
  1418  0008B6  6F83               	movwf	(strcat@from+1)& (0+255),b
  1419  0008B8  EC05  F00B         	call	_strcat	;wreg free
  1420  0008BC                     
  1421                           ;xadrez_main.c: 367: escreve_tela(aux5,1);
  1422  0008BC  0EEA               	movlw	low tela_placar@aux5
  1423  0008BE  0100               	movlb	0	; () banked
  1424  0008C0  6F84               	movwf	escreve_tela@mensagem& (0+255),b
  1425  0008C2  0E00               	movlw	high tela_placar@aux5
  1426  0008C4  6F85               	movwf	(escreve_tela@mensagem+1)& (0+255),b
  1427  0008C6  0E01               	movlw	1
  1428  0008C8  6F86               	movwf	escreve_tela@linha& (0+255),b
  1429  0008CA  EC3D  F00A         	call	_escreve_tela	;wreg free
  1430  0008CE  0012               	return		;funcret
  1431  0008D0                     __end_of_tela_placar:
  1432                           	callstack 0
  1433                           
  1434 ;; *************** function _strcat *****************
  1435 ;; Defined at:
  1436 ;;		line 8 in file "D:\Program Files\Microchip\xc8\v2.36\pic\sources\c90\common\strcat.c"
  1437 ;; Parameters:    Size  Location     Type
  1438 ;;  to              2    0[BANK0 ] PTR unsigned char 
  1439 ;;		 -> tela_placar@aux5(16), tela_placar@aux(16), atualiza_tempo@aux(16), 
  1440 ;;  from            2    2[BANK0 ] PTR const unsigned char 
  1441 ;;		 -> STR_28(11), STR_27(2), STR_22(11), STR_21(2), 
  1442 ;;		 -> tela_placar@aux4(16), tela_placar@aux3(16), tela_placar@aux2(16), tela_placar@aux1(16), 
  1443 ;;		 -> STR_13(2), atualiza_tempo@aux2(16), atualiza_tempo@aux1(16), 
  1444 ;; Auto vars:     Size  Location     Type
  1445 ;;  cp              2    4[BANK0 ] PTR unsigned char 
  1446 ;;		 -> tela_placar@aux5(16), tela_placar@aux(16), atualiza_tempo@aux(16), 
  1447 ;; Return value:  Size  Location     Type
  1448 ;;                  2    0[BANK0 ] PTR unsigned char 
  1449 ;; Registers used:
  1450 ;;		wreg, fsr0l, fsr0h, fsr2l, fsr2h, status,2, status,0, tblptrl, tblptrh, tblptru
  1451 ;; Tracked objects:
  1452 ;;		On entry : 0/0
  1453 ;;		On exit  : 0/0
  1454 ;;		Unchanged: 0/0
  1455 ;; Data sizes:     COMRAM   BANK0   BANK1   BANK2   BANK3   BANK4   BANK5
  1456 ;;      Params:         0       4       0       0       0       0       0
  1457 ;;      Locals:         0       2       0       0       0       0       0
  1458 ;;      Temps:          0       0       0       0       0       0       0
  1459 ;;      Totals:         0       6       0       0       0       0       0
  1460 ;;Total ram usage:        6 bytes
  1461 ;; Hardware stack levels used: 1
  1462 ;; Hardware stack levels required when called: 5
  1463 ;; This function calls:
  1464 ;;		Nothing
  1465 ;; This function is called by:
  1466 ;;		_tela_placar
  1467 ;; This function uses a non-reentrant model
  1468 ;;
  1469                           
  1470                           	psect	text2
  1471  00160A                     __ptext2:
  1472                           	callstack 0
  1473  00160A                     _strcat:
  1474                           	callstack 24
  1475  00160A  C080  F084         	movff	strcat@to,strcat@cp
  1476  00160E  C081  F085         	movff	strcat@to+1,strcat@cp+1
  1477  001612  EF0E  F00B         	goto	l2038
  1478  001616                     l2036:
  1479  001616  0100               	movlb	0	; () banked
  1480  001618  4B84               	infsnz	strcat@cp& (0+255),f,b
  1481  00161A  2B85               	incf	(strcat@cp+1)& (0+255),f,b
  1482  00161C                     l2038:
  1483  00161C  C084  FFD9         	movff	strcat@cp,fsr2l
  1484  001620  C085  FFDA         	movff	strcat@cp+1,fsr2h
  1485  001624  50DF               	movf	indf2,w,c
  1486  001626  A4D8               	btfss	status,2,c
  1487  001628  EF18  F00B         	goto	u1601
  1488  00162C  EF1A  F00B         	goto	u1600
  1489  001630                     u1601:
  1490  001630  EF0B  F00B         	goto	l2036
  1491  001634                     u1600:
  1492  001634  EF21  F00B         	goto	l2042
  1493  001638                     l2040:
  1494  001638  0100               	movlb	0	; () banked
  1495  00163A  4B84               	infsnz	strcat@cp& (0+255),f,b
  1496  00163C  2B85               	incf	(strcat@cp+1)& (0+255),f,b
  1497  00163E  4B82               	infsnz	strcat@from& (0+255),f,b
  1498  001640  2B83               	incf	(strcat@from+1)& (0+255),f,b
  1499  001642                     l2042:
  1500  001642  C082  FFF6         	movff	strcat@from,tblptrl
  1501  001646  C083  FFF7         	movff	strcat@from+1,tblptrh
  1502  00164A  6AF8               	clrf	tblptru,c
  1503  00164C  C084  FFD9         	movff	strcat@cp,fsr2l
  1504  001650  C085  FFDA         	movff	strcat@cp+1,fsr2h
  1505  001654  0E05               	movlw	(high __ramtop+-1)
  1506  001656  64F7               	cpfsgt	tblptrh,c
  1507  001658  D003               	bra	u1617
  1508  00165A  0008               	tblrd		*
  1509  00165C  50F5               	movf	tablat,w,c
  1510  00165E  D005               	bra	u1610
  1511  001660                     u1617:
  1512  001660  CFF6 FFE9          	movff	tblptrl,fsr0l
  1513  001664  CFF7 FFEA          	movff	tblptrh,fsr0h
  1514  001668  50EF               	movf	indf0,w,c
  1515  00166A                     u1610:
  1516  00166A  6EDF               	movwf	indf2,c
  1517  00166C  50DF               	movf	indf2,w,c
  1518  00166E  A4D8               	btfss	status,2,c
  1519  001670  EF3C  F00B         	goto	u1621
  1520  001674  EF3E  F00B         	goto	u1620
  1521  001678                     u1621:
  1522  001678  EF1C  F00B         	goto	l2040
  1523  00167C                     u1620:
  1524  00167C  0012               	return		;funcret
  1525  00167E                     __end_of_strcat:
  1526                           	callstack 0
  1527                           
  1528 ;; *************** function _escreve_tela *****************
  1529 ;; Defined at:
  1530 ;;		line 229 in file "xadrez_main.c"
  1531 ;; Parameters:    Size  Location     Type
  1532 ;;  mensagem        2    4[BANK0 ] PTR unsigned char 
  1533 ;;		 -> tela_placar@aux5(16), tela_placar@aux(16), STR_4(10), STR_3(9), 
  1534 ;;		 -> STR_2(10), STR_1(9), 
  1535 ;;  linha           1    6[BANK0 ] unsigned char 
  1536 ;; Auto vars:     Size  Location     Type
  1537 ;;  i               1   10[BANK0 ] unsigned char 
  1538 ;; Return value:  Size  Location     Type
  1539 ;;                  1    wreg      void 
  1540 ;; Registers used:
  1541 ;;		wreg, fsr0l, fsr0h, status,2, status,0, tblptrl, tblptrh, tblptru, cstack
  1542 ;; Tracked objects:
  1543 ;;		On entry : 0/0
  1544 ;;		On exit  : 0/0
  1545 ;;		Unchanged: 0/0
  1546 ;; Data sizes:     COMRAM   BANK0   BANK1   BANK2   BANK3   BANK4   BANK5
  1547 ;;      Params:         0       3       0       0       0       0       0
  1548 ;;      Locals:         0       1       0       0       0       0       0
  1549 ;;      Temps:          0       3       0       0       0       0       0
  1550 ;;      Totals:         0       7       0       0       0       0       0
  1551 ;;Total ram usage:        7 bytes
  1552 ;; Hardware stack levels used: 1
  1553 ;; Hardware stack levels required when called: 8
  1554 ;; This function calls:
  1555 ;;		_LCD_PutChar
  1556 ;;		_LCD_PutCmd
  1557 ;;		_strlen
  1558 ;; This function is called by:
  1559 ;;		_tela_placar
  1560 ;; This function uses a non-reentrant model
  1561 ;;
  1562                           
  1563                           	psect	text3
  1564  00147A                     __ptext3:
  1565                           	callstack 0
  1566  00147A                     _escreve_tela:
  1567                           	callstack 21
  1568  00147A                     
  1569                           ;xadrez_main.c: 232: if(linha){
  1570  00147A  0100               	movlb	0	; () banked
  1571  00147C  5186               	movf	escreve_tela@linha& (0+255),w,b
  1572  00147E  B4D8               	btfsc	status,2,c
  1573  001480  EF44  F00A         	goto	u1501
  1574  001484  EF46  F00A         	goto	u1500
  1575  001488                     u1501:
  1576  001488  EF4C  F00A         	goto	l1966
  1577  00148C                     u1500:
  1578  00148C                     
  1579                           ; BSR set to: 0
  1580                           ;xadrez_main.c: 233: LCD_PutCmd(0xC0);
  1581  00148C  0E00               	movlw	0
  1582  00148E  6F83               	movwf	(LCD_PutCmd@c+1)& (0+255),b
  1583  001490  0EC0               	movlw	192
  1584  001492  6F82               	movwf	LCD_PutCmd@c& (0+255),b
  1585  001494  EC29  F00E         	call	_LCD_PutCmd	;wreg free
  1586  001498                     l1966:
  1587                           
  1588                           ;xadrez_main.c: 234: };xadrez_main.c: 235: for(i = 0;i<strlen(mensagem);i++){
  1589  001498  0E00               	movlw	0
  1590  00149A  0100               	movlb	0	; () banked
  1591  00149C  6F8A               	movwf	escreve_tela@i& (0+255),b
  1592  00149E  EF70  F00A         	goto	l1972
  1593  0014A2                     l1968:
  1594                           
  1595                           ; BSR set to: 0
  1596                           ;xadrez_main.c: 236: LCD_PutChar(mensagem[i]);
  1597  0014A2  518A               	movf	escreve_tela@i& (0+255),w,b
  1598  0014A4  2584               	addwf	escreve_tela@mensagem& (0+255),w,b
  1599  0014A6  6F87               	movwf	??_escreve_tela& (0+255),b
  1600  0014A8  0E00               	movlw	0
  1601  0014AA  2185               	addwfc	(escreve_tela@mensagem+1)& (0+255),w,b
  1602  0014AC  6F88               	movwf	(??_escreve_tela+1)& (0+255),b
  1603  0014AE  C087  FFF6         	movff	??_escreve_tela,tblptrl
  1604  0014B2  C088  FFF7         	movff	??_escreve_tela+1,tblptrh
  1605  0014B6  6AF8               	clrf	tblptru,c
  1606  0014B8  0E05               	movlw	(high __ramtop+-1)
  1607  0014BA  64F7               	cpfsgt	tblptrh,c
  1608  0014BC  D003               	bra	u1517
  1609  0014BE  0008               	tblrd		*
  1610  0014C0  50F5               	movf	tablat,w,c
  1611  0014C2  D005               	bra	u1510
  1612  0014C4                     u1517:
  1613  0014C4  CFF6 FFE9          	movff	tblptrl,fsr0l
  1614  0014C8  CFF7 FFEA          	movff	tblptrh,fsr0h
  1615  0014CC  50EF               	movf	indf0,w,c
  1616  0014CE                     u1510:
  1617  0014CE  0100               	movlb	0	; () banked
  1618  0014D0  6F89               	movwf	(??_escreve_tela+2)& (0+255),b
  1619  0014D2  5189               	movf	(??_escreve_tela+2)& (0+255),w,b
  1620  0014D4  6F82               	movwf	LCD_PutChar@c& (0+255),b
  1621  0014D6  6B83               	clrf	(LCD_PutChar@c+1)& (0+255),b
  1622  0014D8  EC03  F00E         	call	_LCD_PutChar	;wreg free
  1623  0014DC  0100               	movlb	0	; () banked
  1624  0014DE  2B8A               	incf	escreve_tela@i& (0+255),f,b
  1625  0014E0                     l1972:
  1626                           
  1627                           ; BSR set to: 0
  1628  0014E0  C084  F080         	movff	escreve_tela@mensagem,strlen@s
  1629  0014E4  C085  F081         	movff	escreve_tela@mensagem+1,strlen@s+1
  1630  0014E8  EC9C  F00D         	call	_strlen	;wreg free
  1631  0014EC  0100               	movlb	0	; () banked
  1632  0014EE  518A               	movf	escreve_tela@i& (0+255),w,b
  1633  0014F0  6F87               	movwf	??_escreve_tela& (0+255),b
  1634  0014F2  6B88               	clrf	(??_escreve_tela+1)& (0+255),b
  1635  0014F4  5180               	movf	?_strlen& (0+255),w,b
  1636  0014F6  5D87               	subwf	??_escreve_tela& (0+255),w,b
  1637  0014F8  5181               	movf	(?_strlen+1)& (0+255),w,b
  1638  0014FA  5988               	subwfb	(??_escreve_tela+1)& (0+255),w,b
  1639  0014FC  A0D8               	btfss	status,0,c
  1640  0014FE  EF83  F00A         	goto	u1521
  1641  001502  EF85  F00A         	goto	u1520
  1642  001506                     u1521:
  1643  001506  EF51  F00A         	goto	l1968
  1644  00150A                     u1520:
  1645  00150A                     
  1646                           ; BSR set to: 0
  1647  00150A  0012               	return		;funcret
  1648  00150C                     __end_of_escreve_tela:
  1649                           	callstack 0
  1650                           
  1651 ;; *************** function _strlen *****************
  1652 ;; Defined at:
  1653 ;;		line 4 in file "D:\Program Files\Microchip\xc8\v2.36\pic\sources\c90\common\strlen.c"
  1654 ;; Parameters:    Size  Location     Type
  1655 ;;  s               2    0[BANK0 ] PTR const unsigned char 
  1656 ;;		 -> tela_placar@aux5(16), tela_placar@aux(16), STR_4(10), STR_3(9), 
  1657 ;;		 -> STR_2(10), STR_1(9), 
  1658 ;; Auto vars:     Size  Location     Type
  1659 ;;  cp              2    2[BANK0 ] PTR const unsigned char 
  1660 ;;		 -> tela_placar@aux5(16), tela_placar@aux(16), STR_4(10), STR_3(9), 
  1661 ;;		 -> STR_2(10), STR_1(9), 
  1662 ;; Return value:  Size  Location     Type
  1663 ;;                  2    0[BANK0 ] unsigned int 
  1664 ;; Registers used:
  1665 ;;		wreg, fsr0l, fsr0h, status,2, status,0, tblptrl, tblptrh, tblptru
  1666 ;; Tracked objects:
  1667 ;;		On entry : 0/0
  1668 ;;		On exit  : 0/0
  1669 ;;		Unchanged: 0/0
  1670 ;; Data sizes:     COMRAM   BANK0   BANK1   BANK2   BANK3   BANK4   BANK5
  1671 ;;      Params:         0       2       0       0       0       0       0
  1672 ;;      Locals:         0       2       0       0       0       0       0
  1673 ;;      Temps:          0       0       0       0       0       0       0
  1674 ;;      Totals:         0       4       0       0       0       0       0
  1675 ;;Total ram usage:        4 bytes
  1676 ;; Hardware stack levels used: 1
  1677 ;; Hardware stack levels required when called: 5
  1678 ;; This function calls:
  1679 ;;		Nothing
  1680 ;; This function is called by:
  1681 ;;		_escreve_tela
  1682 ;; This function uses a non-reentrant model
  1683 ;;
  1684                           
  1685                           	psect	text4
  1686  001B38                     __ptext4:
  1687                           	callstack 0
  1688  001B38                     _strlen:
  1689                           	callstack 23
  1690  001B38  C080  F082         	movff	strlen@s,strlen@cp
  1691  001B3C  C081  F083         	movff	strlen@s+1,strlen@cp+1
  1692  001B40  EFA5  F00D         	goto	l1854
  1693  001B44                     l1852:
  1694  001B44  0100               	movlb	0	; () banked
  1695  001B46  4B82               	infsnz	strlen@cp& (0+255),f,b
  1696  001B48  2B83               	incf	(strlen@cp+1)& (0+255),f,b
  1697  001B4A                     l1854:
  1698  001B4A  C082  FFF6         	movff	strlen@cp,tblptrl
  1699  001B4E  C083  FFF7         	movff	strlen@cp+1,tblptrh
  1700  001B52  6AF8               	clrf	tblptru,c
  1701  001B54  0E05               	movlw	(high __ramtop+-1)
  1702  001B56  64F7               	cpfsgt	tblptrh,c
  1703  001B58  D003               	bra	u1287
  1704  001B5A  0008               	tblrd		*
  1705  001B5C  50F5               	movf	tablat,w,c
  1706  001B5E  D005               	bra	u1280
  1707  001B60                     u1287:
  1708  001B60  CFF6 FFE9          	movff	tblptrl,fsr0l
  1709  001B64  CFF7 FFEA          	movff	tblptrh,fsr0h
  1710  001B68  50EF               	movf	indf0,w,c
  1711  001B6A                     u1280:
  1712  001B6A  0900               	iorlw	0
  1713  001B6C  A4D8               	btfss	status,2,c
  1714  001B6E  EFBB  F00D         	goto	u1291
  1715  001B72  EFBD  F00D         	goto	u1290
  1716  001B76                     u1291:
  1717  001B76  EFA2  F00D         	goto	l1852
  1718  001B7A                     u1290:
  1719  001B7A  0100               	movlb	0	; () banked
  1720  001B7C  5180               	movf	strlen@s& (0+255),w,b
  1721  001B7E  5D82               	subwf	strlen@cp& (0+255),w,b
  1722  001B80  6F80               	movwf	?_strlen& (0+255),b
  1723  001B82  5181               	movf	(strlen@s+1)& (0+255),w,b
  1724  001B84  5983               	subwfb	(strlen@cp+1)& (0+255),w,b
  1725  001B86  6F81               	movwf	(?_strlen+1)& (0+255),b
  1726  001B88                     
  1727                           ; BSR set to: 0
  1728  001B88  0012               	return		;funcret
  1729  001B8A                     __end_of_strlen:
  1730                           	callstack 0
  1731                           
  1732 ;; *************** function _tela_configura *****************
  1733 ;; Defined at:
  1734 ;;		line 285 in file "xadrez_main.c"
  1735 ;; Parameters:    Size  Location     Type
  1736 ;;		None
  1737 ;; Auto vars:     Size  Location     Type
  1738 ;;  i               2   40[BANK0 ] int 
  1739 ;;  i               2   38[BANK0 ] int 
  1740 ;;  i               2   36[BANK0 ] int 
  1741 ;;  mensagem        9   27[BANK0 ] unsigned char [9]
  1742 ;;  aux1            2   42[BANK0 ] unsigned char [2]
  1743 ;; Return value:  Size  Location     Type
  1744 ;;                  1    wreg      void 
  1745 ;; Registers used:
  1746 ;;		wreg, fsr1l, fsr1h, fsr2l, fsr2h, status,2, status,0, tblptrl, tblptrh, tblptru, prodl, prodh, cstack
  1747 ;; Tracked objects:
  1748 ;;		On entry : 0/0
  1749 ;;		On exit  : 0/0
  1750 ;;		Unchanged: 0/0
  1751 ;; Data sizes:     COMRAM   BANK0   BANK1   BANK2   BANK3   BANK4   BANK5
  1752 ;;      Params:         0       0       0       0       0       0       0
  1753 ;;      Locals:         0      17       0       0       0       0       0
  1754 ;;      Temps:          0       1       0       0       0       0       0
  1755 ;;      Totals:         0      18       0       0       0       0       0
  1756 ;;Total ram usage:       18 bytes
  1757 ;; Hardware stack levels used: 1
  1758 ;; Hardware stack levels required when called: 8
  1759 ;; This function calls:
  1760 ;;		_LCD_PutChar
  1761 ;;		_LCD_PutCmd
  1762 ;;		_sprintf
  1763 ;; This function is called by:
  1764 ;;		_main
  1765 ;; This function uses a non-reentrant model
  1766 ;;
  1767                           
  1768                           	psect	text5
  1769  00124C                     __ptext5:
  1770                           	callstack 0
  1771  00124C                     _tela_configura:
  1772                           	callstack 22
  1773  00124C                     
  1774                           ;xadrez_main.c: 286: char mensagem[9] = "CONFIGURA";
  1775  00124C  EE20  F06D         	lfsr	2,tela_configura@F2614
  1776  001250  EE10  F09B         	lfsr	1,tela_configura@mensagem
  1777  001254  0E08               	movlw	8
  1778  001256                     u1871:
  1779  001256  CFDB FFE3          	movff	plusw2,plusw1
  1780  00125A  06E8               	decf	wreg,f,c
  1781  00125C  E2FC               	bc	u1871
  1782  00125E                     
  1783                           ;xadrez_main.c: 287: char aux1[2];;xadrez_main.c: 288: LCD_PutCmd(0x01);
  1784  00125E  0E00               	movlw	0
  1785  001260  0100               	movlb	0	; () banked
  1786  001262  6F83               	movwf	(LCD_PutCmd@c+1)& (0+255),b
  1787  001264  0E01               	movlw	1
  1788  001266  6F82               	movwf	LCD_PutCmd@c& (0+255),b
  1789  001268  EC29  F00E         	call	_LCD_PutCmd	;wreg free
  1790  00126C                     
  1791                           ;xadrez_main.c: 289: for(int i=0;i<9;i++){
  1792  00126C  0E00               	movlw	0
  1793  00126E  0100               	movlb	0	; () banked
  1794  001270  6FA5               	movwf	(tela_configura@i+1)& (0+255),b
  1795  001272  0E00               	movlw	0
  1796  001274  6FA4               	movwf	tela_configura@i& (0+255),b
  1797  001276                     l2228:
  1798                           
  1799                           ; BSR set to: 0
  1800                           ;xadrez_main.c: 290: LCD_PutChar(mensagem[i]); }
  1801  001276  0E9B               	movlw	low tela_configura@mensagem
  1802  001278  25A4               	addwf	tela_configura@i& (0+255),w,b
  1803  00127A  6ED9               	movwf	fsr2l,c
  1804  00127C  0E00               	movlw	high tela_configura@mensagem
  1805  00127E  21A5               	addwfc	(tela_configura@i+1)& (0+255),w,b
  1806  001280  6EDA               	movwf	fsr2h,c
  1807  001282  50DF               	movf	indf2,w,c
  1808  001284  6F9A               	movwf	??_tela_configura& (0+255),b
  1809  001286  519A               	movf	??_tela_configura& (0+255),w,b
  1810  001288  6F82               	movwf	LCD_PutChar@c& (0+255),b
  1811  00128A  6B83               	clrf	(LCD_PutChar@c+1)& (0+255),b
  1812  00128C  EC03  F00E         	call	_LCD_PutChar	;wreg free
  1813  001290  0100               	movlb	0	; () banked
  1814  001292  4BA4               	infsnz	tela_configura@i& (0+255),f,b
  1815  001294  2BA5               	incf	(tela_configura@i+1)& (0+255),f,b
  1816  001296                     
  1817                           ; BSR set to: 0
  1818  001296  BFA5               	btfsc	(tela_configura@i+1)& (0+255),7,b
  1819  001298  EF57  F009         	goto	u1881
  1820  00129C  51A5               	movf	(tela_configura@i+1)& (0+255),w,b
  1821  00129E  E109               	bnz	u1880
  1822  0012A0  0E09               	movlw	9
  1823  0012A2  5DA4               	subwf	tela_configura@i& (0+255),w,b
  1824  0012A4  A0D8               	btfss	status,0,c
  1825  0012A6  EF57  F009         	goto	u1881
  1826  0012AA  EF59  F009         	goto	u1880
  1827  0012AE                     u1881:
  1828  0012AE  EF3B  F009         	goto	l2228
  1829  0012B2                     u1880:
  1830  0012B2                     
  1831                           ; BSR set to: 0
  1832                           ;xadrez_main.c: 292: LCD_PutCmd(0xC0);
  1833  0012B2  0E00               	movlw	0
  1834  0012B4  6F83               	movwf	(LCD_PutCmd@c+1)& (0+255),b
  1835  0012B6  0EC0               	movlw	192
  1836  0012B8  6F82               	movwf	LCD_PutCmd@c& (0+255),b
  1837  0012BA  EC29  F00E         	call	_LCD_PutCmd	;wreg free
  1838  0012BE                     
  1839                           ;xadrez_main.c: 293: if(minConfigura<10)sprintf(aux1,"0%d",minConfigura);
  1840  0012BE  0100               	movlb	0	; () banked
  1841  0012C0  BFFD               	btfsc	(_minConfigura+1)& (0+255),7,b
  1842  0012C2  EF6E  F009         	goto	u1890
  1843  0012C6  51FD               	movf	(_minConfigura+1)& (0+255),w,b
  1844  0012C8  E107               	bnz	u1891
  1845  0012CA  0E0A               	movlw	10
  1846  0012CC  5DFC               	subwf	_minConfigura& (0+255),w,b
  1847  0012CE  B0D8               	btfsc	status,0,c
  1848  0012D0  EF6C  F009         	goto	u1891
  1849  0012D4  EF6E  F009         	goto	u1890
  1850  0012D8                     u1891:
  1851  0012D8  EF7C  F009         	goto	l196
  1852  0012DC                     u1890:
  1853  0012DC                     
  1854                           ; BSR set to: 0
  1855  0012DC  0EAA               	movlw	low tela_configura@aux1
  1856  0012DE  6F8C               	movwf	sprintf@sp& (0+255),b
  1857  0012E0  0E00               	movlw	high tela_configura@aux1
  1858  0012E2  6F8D               	movwf	(sprintf@sp+1)& (0+255),b
  1859  0012E4  0E2A               	movlw	low STR_5
  1860  0012E6  6F8E               	movwf	sprintf@f& (0+255),b
  1861  0012E8  0E06               	movlw	high STR_5
  1862  0012EA  6F8F               	movwf	(sprintf@f+1)& (0+255),b
  1863  0012EC  C0FC  F090         	movff	_minConfigura,?_sprintf+4
  1864  0012F0  C0FD  F091         	movff	_minConfigura+1,?_sprintf+5
  1865  0012F4  EC83  F007         	call	_sprintf	;wreg free
  1866  0012F8                     l196:
  1867                           
  1868                           ;xadrez_main.c: 294: sprintf(aux1,"%d",minConfigura);
  1869  0012F8  0EAA               	movlw	low tela_configura@aux1
  1870  0012FA  0100               	movlb	0	; () banked
  1871  0012FC  6F8C               	movwf	sprintf@sp& (0+255),b
  1872  0012FE  0E00               	movlw	high tela_configura@aux1
  1873  001300  6F8D               	movwf	(sprintf@sp+1)& (0+255),b
  1874  001302  0E2B               	movlw	low (STR_5+1)
  1875  001304  6F8E               	movwf	sprintf@f& (0+255),b
  1876  001306  0E06               	movlw	high (STR_5+1)
  1877  001308  6F8F               	movwf	(sprintf@f+1)& (0+255),b
  1878  00130A  C0FC  F090         	movff	_minConfigura,?_sprintf+4
  1879  00130E  C0FD  F091         	movff	_minConfigura+1,?_sprintf+5
  1880  001312  EC83  F007         	call	_sprintf	;wreg free
  1881  001316                     
  1882                           ;xadrez_main.c: 296: if(minConfigura>=10){
  1883  001316  0100               	movlb	0	; () banked
  1884  001318  BFFD               	btfsc	(_minConfigura+1)& (0+255),7,b
  1885  00131A  EF98  F009         	goto	u1901
  1886  00131E  51FD               	movf	(_minConfigura+1)& (0+255),w,b
  1887  001320  E109               	bnz	u1900
  1888  001322  0E0A               	movlw	10
  1889  001324  5DFC               	subwf	_minConfigura& (0+255),w,b
  1890  001326  A0D8               	btfss	status,0,c
  1891  001328  EF98  F009         	goto	u1901
  1892  00132C  EF9A  F009         	goto	u1900
  1893  001330                     u1901:
  1894  001330  EFBE  F009         	goto	l2254
  1895  001334                     u1900:
  1896  001334                     
  1897                           ; BSR set to: 0
  1898                           ;xadrez_main.c: 297: for(int i=0;i<2;i++){
  1899  001334  0E00               	movlw	0
  1900  001336  6FA7               	movwf	(tela_configura@i_624+1)& (0+255),b
  1901  001338  0E00               	movlw	0
  1902  00133A  6FA6               	movwf	tela_configura@i_624& (0+255),b
  1903  00133C                     l2248:
  1904                           
  1905                           ; BSR set to: 0
  1906                           ;xadrez_main.c: 298: LCD_PutChar(aux1[i]);
  1907  00133C  0EAA               	movlw	low tela_configura@aux1
  1908  00133E  25A6               	addwf	tela_configura@i_624& (0+255),w,b
  1909  001340  6ED9               	movwf	fsr2l,c
  1910  001342  0E00               	movlw	high tela_configura@aux1
  1911  001344  21A7               	addwfc	(tela_configura@i_624+1)& (0+255),w,b
  1912  001346  6EDA               	movwf	fsr2h,c
  1913  001348  50DF               	movf	indf2,w,c
  1914  00134A  6F9A               	movwf	??_tela_configura& (0+255),b
  1915  00134C  519A               	movf	??_tela_configura& (0+255),w,b
  1916  00134E  6F82               	movwf	LCD_PutChar@c& (0+255),b
  1917  001350  6B83               	clrf	(LCD_PutChar@c+1)& (0+255),b
  1918  001352  EC03  F00E         	call	_LCD_PutChar	;wreg free
  1919  001356  0100               	movlb	0	; () banked
  1920  001358  4BA6               	infsnz	tela_configura@i_624& (0+255),f,b
  1921  00135A  2BA7               	incf	(tela_configura@i_624+1)& (0+255),f,b
  1922  00135C                     
  1923                           ; BSR set to: 0
  1924  00135C  BFA7               	btfsc	(tela_configura@i_624+1)& (0+255),7,b
  1925  00135E  EFBA  F009         	goto	u1911
  1926  001362  51A7               	movf	(tela_configura@i_624+1)& (0+255),w,b
  1927  001364  E109               	bnz	u1910
  1928  001366  0E02               	movlw	2
  1929  001368  5DA6               	subwf	tela_configura@i_624& (0+255),w,b
  1930  00136A  A0D8               	btfss	status,0,c
  1931  00136C  EFBA  F009         	goto	u1911
  1932  001370  EFBC  F009         	goto	u1910
  1933  001374                     u1911:
  1934  001374  EF9E  F009         	goto	l2248
  1935  001378                     u1910:
  1936  001378  EFE6  F009         	goto	l203
  1937  00137C                     l2254:
  1938                           
  1939                           ; BSR set to: 0
  1940                           ;xadrez_main.c: 301: for(int i=0;i<1;i++){
  1941  00137C  0E00               	movlw	0
  1942  00137E  6FA9               	movwf	(tela_configura@i_625+1)& (0+255),b
  1943  001380  0E00               	movlw	0
  1944  001382  6FA8               	movwf	tela_configura@i_625& (0+255),b
  1945  001384                     l2260:
  1946                           
  1947                           ; BSR set to: 0
  1948                           ;xadrez_main.c: 302: LCD_PutChar("O");
  1949  001384  0E06               	movlw	high STR_16
  1950  001386  6F83               	movwf	(LCD_PutChar@c+1)& (0+255),b
  1951  001388  0E30               	movlw	low STR_16
  1952  00138A  6F82               	movwf	LCD_PutChar@c& (0+255),b
  1953  00138C  EC03  F00E         	call	_LCD_PutChar	;wreg free
  1954  001390                     
  1955                           ;xadrez_main.c: 303: LCD_PutChar(aux1[i]);
  1956  001390  0EAA               	movlw	low tela_configura@aux1
  1957  001392  0100               	movlb	0	; () banked
  1958  001394  25A8               	addwf	tela_configura@i_625& (0+255),w,b
  1959  001396  6ED9               	movwf	fsr2l,c
  1960  001398  0E00               	movlw	high tela_configura@aux1
  1961  00139A  21A9               	addwfc	(tela_configura@i_625+1)& (0+255),w,b
  1962  00139C  6EDA               	movwf	fsr2h,c
  1963  00139E  50DF               	movf	indf2,w,c
  1964  0013A0  6F9A               	movwf	??_tela_configura& (0+255),b
  1965  0013A2  519A               	movf	??_tela_configura& (0+255),w,b
  1966  0013A4  6F82               	movwf	LCD_PutChar@c& (0+255),b
  1967  0013A6  6B83               	clrf	(LCD_PutChar@c+1)& (0+255),b
  1968  0013A8  EC03  F00E         	call	_LCD_PutChar	;wreg free
  1969  0013AC  0100               	movlb	0	; () banked
  1970  0013AE  4BA8               	infsnz	tela_configura@i_625& (0+255),f,b
  1971  0013B0  2BA9               	incf	(tela_configura@i_625+1)& (0+255),f,b
  1972  0013B2                     
  1973                           ; BSR set to: 0
  1974  0013B2  BFA9               	btfsc	(tela_configura@i_625+1)& (0+255),7,b
  1975  0013B4  EFE4  F009         	goto	u1921
  1976  0013B8  51A9               	movf	(tela_configura@i_625+1)& (0+255),w,b
  1977  0013BA  E108               	bnz	u1920
  1978  0013BC  05A8               	decf	tela_configura@i_625& (0+255),w,b
  1979  0013BE  A0D8               	btfss	status,0,c
  1980  0013C0  EFE4  F009         	goto	u1921
  1981  0013C4  EFE6  F009         	goto	u1920
  1982  0013C8                     u1921:
  1983  0013C8  EFC2  F009         	goto	l2260
  1984  0013CC                     u1920:
  1985  0013CC                     l203:
  1986                           
  1987                           ; BSR set to: 0
  1988  0013CC  0012               	return		;funcret
  1989  0013CE                     __end_of_tela_configura:
  1990                           	callstack 0
  1991                           
  1992 ;; *************** function _sprintf *****************
  1993 ;; Defined at:
  1994 ;;		line 505 in file "D:\Program Files\Microchip\xc8\v2.36\pic\sources\c90\common\doprnt.c"
  1995 ;; Parameters:    Size  Location     Type
  1996 ;;  sp              2   12[BANK0 ] PTR unsigned char 
  1997 ;;		 -> tela_placar@aux4(16), tela_placar@aux3(16), tela_placar@aux2(16), tela_placar@aux1(16), 
  1998 ;;		 -> tela_configura@aux1(2), atualiza_tempo@aux2(16), atualiza_tempo@aux1(16), 
  1999 ;;  f               2   14[BANK0 ] PTR const unsigned char 
  2000 ;;		 -> STR_26(3), STR_25(4), STR_24(3), STR_23(4), 
  2001 ;;		 -> STR_20(3), STR_19(4), STR_18(3), STR_17(4), 
  2002 ;;		 -> STR_15(3), STR_14(4), STR_12(3), STR_11(4), 
  2003 ;;		 -> STR_10(3), STR_9(4), STR_8(3), STR_7(4), 
  2004 ;;		 -> STR_6(3), STR_5(4), 
  2005 ;; Auto vars:     Size  Location     Type
  2006 ;;  tmpval          4    0        struct .
  2007 ;;  cp              3    0        PTR const unsigned char 
  2008 ;;  val             2   23[BANK0 ] unsigned int 
  2009 ;;  ap              2   19[BANK0 ] PTR void [1]
  2010 ;;		 -> ?_sprintf(2), 
  2011 ;;  len             2    0        unsigned int 
  2012 ;;  c               1   25[BANK0 ] unsigned char 
  2013 ;;  prec            1   22[BANK0 ] char 
  2014 ;;  flag            1   21[BANK0 ] unsigned char 
  2015 ;; Return value:  Size  Location     Type
  2016 ;;                  2   12[BANK0 ] int 
  2017 ;; Registers used:
  2018 ;;		wreg, fsr2l, fsr2h, status,2, status,0, tblptrl, tblptrh, tblptru, prodl, prodh, cstack
  2019 ;; Tracked objects:
  2020 ;;		On entry : 0/0
  2021 ;;		On exit  : 0/0
  2022 ;;		Unchanged: 0/0
  2023 ;; Data sizes:     COMRAM   BANK0   BANK1   BANK2   BANK3   BANK4   BANK5
  2024 ;;      Params:         0       6       0       0       0       0       0
  2025 ;;      Locals:         0       7       0       0       0       0       0
  2026 ;;      Temps:          0       1       0       0       0       0       0
  2027 ;;      Totals:         0      14       0       0       0       0       0
  2028 ;;Total ram usage:       14 bytes
  2029 ;; Hardware stack levels used: 1
  2030 ;; Hardware stack levels required when called: 6
  2031 ;; This function calls:
  2032 ;;		___lwdiv
  2033 ;;		___lwmod
  2034 ;; This function is called by:
  2035 ;;		_tela_configura
  2036 ;;		_tela_placar
  2037 ;; This function uses a non-reentrant model
  2038 ;;
  2039                           
  2040                           	psect	text6
  2041  000F06                     __ptext6:
  2042                           	callstack 0
  2043  000F06                     _sprintf:
  2044                           	callstack 23
  2045  000F06                     
  2046                           ;doprnt.c: 507: va_list ap;;doprnt.c: 512: char c;;doprnt.c: 521: signed char prec;;dopr
      +                          nt.c: 525: unsigned char flag;;doprnt.c: 540: union {;doprnt.c: 541: unsigned long vd;;d
      +                          oprnt.c: 542: double integ;;doprnt.c: 543: } tmpval;;doprnt.c: 545: unsigned int val;;do
      +                          prnt.c: 546: unsigned len;;doprnt.c: 547: const char * cp;;doprnt.c: 550: *ap = __va_sta
      +                          rt();
  2047  000F06  0E90               	movlw	low (?_sprintf+4)
  2048  000F08  0100               	movlb	0	; () banked
  2049  000F0A  6F93               	movwf	sprintf@ap& (0+255),b
  2050  000F0C  0E00               	movlw	high (?_sprintf+4)
  2051  000F0E  6F94               	movwf	(sprintf@ap+1)& (0+255),b
  2052                           
  2053                           ;doprnt.c: 553: while((c = *f++)) {
  2054  000F10  EF3E  F008         	goto	l2028
  2055  000F14                     l1976:
  2056                           
  2057                           ; BSR set to: 0
  2058                           ;doprnt.c: 555: if(c != '%')
  2059  000F14  0E25               	movlw	37
  2060  000F16  1999               	xorwf	sprintf@c& (0+255),w,b
  2061  000F18  B4D8               	btfsc	status,2,c
  2062  000F1A  EF91  F007         	goto	u1531
  2063  000F1E  EF93  F007         	goto	u1530
  2064  000F22                     u1531:
  2065  000F22  EF9D  F007         	goto	l1982
  2066  000F26                     u1530:
  2067  000F26                     
  2068                           ; BSR set to: 0
  2069                           ;doprnt.c: 557: {;doprnt.c: 558: ((*sp++ = (c)));
  2070  000F26  C08C  FFD9         	movff	sprintf@sp,fsr2l
  2071  000F2A  C08D  FFDA         	movff	sprintf@sp+1,fsr2h
  2072  000F2E  C099  FFDF         	movff	sprintf@c,indf2
  2073  000F32                     
  2074                           ; BSR set to: 0
  2075  000F32  4B8C               	infsnz	sprintf@sp& (0+255),f,b
  2076  000F34  2B8D               	incf	(sprintf@sp+1)& (0+255),f,b
  2077                           
  2078                           ;doprnt.c: 559: continue;
  2079  000F36  EF3E  F008         	goto	l2028
  2080  000F3A                     l1982:
  2081                           
  2082                           ; BSR set to: 0
  2083                           ;doprnt.c: 560: };doprnt.c: 565: flag = 0;
  2084  000F3A  0E00               	movlw	0
  2085  000F3C  6F95               	movwf	sprintf@flag& (0+255),b
  2086  000F3E                     
  2087                           ; BSR set to: 0
  2088  000F3E  C08E  FFF6         	movff	sprintf@f,tblptrl
  2089  000F42  C08F  FFF7         	movff	sprintf@f+1,tblptrh
  2090  000F46  4B8E               	infsnz	sprintf@f& (0+255),f,b
  2091  000F48  2B8F               	incf	(sprintf@f+1)& (0+255),f,b
  2092  000F4A                     	if	0	;tblptru may be non-zero
  2093  000F4A                     	endif
  2094  000F4A                     	if	0	;tblptru may be non-zero
  2095  000F4A                     	endif
  2096  000F4A  0008               	tblrd		*
  2097  000F4C  CFF5 F099          	movff	tablat,sprintf@c
  2098  000F50  5199               	movf	sprintf@c& (0+255),w,b
  2099                           
  2100                           ; Switch size 1, requested type "simple"
  2101                           ; Number of cases is 3, Range of values is 0 to 105
  2102                           ; switch strategies available:
  2103                           ; Name         Instructions Cycles
  2104                           ; simple_byte           10     6 (average)
  2105                           ;	Chosen strategy is simple_byte
  2106  000F52  0A00               	xorlw	0	; case 0
  2107  000F54  B4D8               	btfsc	status,2,c
  2108  000F56  EF4F  F008         	goto	l2030
  2109  000F5A  0A64               	xorlw	100	; case 100
  2110  000F5C  B4D8               	btfsc	status,2,c
  2111  000F5E  EFB7  F007         	goto	l1988
  2112  000F62  0A0D               	xorlw	13	; case 105
  2113  000F64  B4D8               	btfsc	status,2,c
  2114  000F66  EFB7  F007         	goto	l1988
  2115  000F6A  EF3E  F008         	goto	l2028
  2116  000F6E                     l1988:
  2117                           
  2118                           ; BSR set to: 0
  2119                           ;doprnt.c: 1279: {;doprnt.c: 1285: val = (unsigned int)(*(int *)__va_arg((*(int **)ap), 
      +                          (int)0));
  2120  000F6E  C093  FFD9         	movff	sprintf@ap,fsr2l
  2121  000F72  C094  FFDA         	movff	sprintf@ap+1,fsr2h
  2122  000F76  CFDE F097          	movff	postinc2,sprintf@val
  2123  000F7A  CFDD F098          	movff	postdec2,sprintf@val+1
  2124  000F7E                     
  2125                           ; BSR set to: 0
  2126  000F7E  0E02               	movlw	2
  2127  000F80  2793               	addwf	sprintf@ap& (0+255),f,b
  2128  000F82  0E00               	movlw	0
  2129  000F84  2394               	addwfc	(sprintf@ap+1)& (0+255),f,b
  2130  000F86                     
  2131                           ; BSR set to: 0
  2132                           ;doprnt.c: 1287: if((int)val < 0) {
  2133  000F86  BF98               	btfsc	(sprintf@val+1)& (0+255),7,b
  2134  000F88  EFCA  F007         	goto	u1540
  2135  000F8C  EFC8  F007         	goto	u1541
  2136  000F90                     u1541:
  2137  000F90  EFD0  F007         	goto	l1998
  2138  000F94                     u1540:
  2139  000F94                     
  2140                           ; BSR set to: 0
  2141                           ;doprnt.c: 1288: flag |= 0x03;
  2142  000F94  0E03               	movlw	3
  2143  000F96  1395               	iorwf	sprintf@flag& (0+255),f,b
  2144  000F98                     
  2145                           ; BSR set to: 0
  2146                           ;doprnt.c: 1289: val = -val;
  2147  000F98  6D97               	negf	sprintf@val& (0+255),b
  2148  000F9A  1F98               	comf	(sprintf@val+1)& (0+255),f,b
  2149  000F9C  B0D8               	btfsc	status,0,c
  2150  000F9E  2B98               	incf	(sprintf@val+1)& (0+255),f,b
  2151  000FA0                     l1998:
  2152                           
  2153                           ; BSR set to: 0
  2154                           ;doprnt.c: 1290: };doprnt.c: 1292: };doprnt.c: 1331: for(c = 1 ; c != sizeof dpowers/siz
      +                          eof dpowers[0] ; c++)
  2155  000FA0  0E01               	movlw	1
  2156  000FA2  6F99               	movwf	sprintf@c& (0+255),b
  2157  000FA4                     l2004:
  2158                           
  2159                           ; BSR set to: 0
  2160                           ;doprnt.c: 1332: if(val < dpowers[c])
  2161  000FA4  5199               	movf	sprintf@c& (0+255),w,b
  2162  000FA6  0D02               	mullw	2
  2163  000FA8  0E01               	movlw	low _dpowers
  2164  000FAA  24F3               	addwf	243,w,c
  2165  000FAC  6EF6               	movwf	tblptrl,c
  2166  000FAE  0E06               	movlw	high _dpowers
  2167  000FB0  20F4               	addwfc	244,w,c
  2168  000FB2  6EF7               	movwf	tblptrh,c
  2169  000FB4                     	if	0	;There are less than 3 active tblptr bytes
  2170  000FB4                     	endif
  2171  000FB4  0009               	tblrd		*+
  2172  000FB6  50F5               	movf	tablat,w,c
  2173  000FB8  5D97               	subwf	sprintf@val& (0+255),w,b
  2174  000FBA  0009               	tblrd		*+
  2175  000FBC  50F5               	movf	tablat,w,c
  2176  000FBE  5998               	subwfb	(sprintf@val+1)& (0+255),w,b
  2177  000FC0  B0D8               	btfsc	status,0,c
  2178  000FC2  EFE5  F007         	goto	u1551
  2179  000FC6  EFE7  F007         	goto	u1550
  2180  000FCA                     u1551:
  2181  000FCA  EFE9  F007         	goto	l2008
  2182  000FCE                     u1550:
  2183  000FCE  EFF3  F007         	goto	l2012
  2184  000FD2                     l2008:
  2185                           
  2186                           ; BSR set to: 0
  2187  000FD2  2B99               	incf	sprintf@c& (0+255),f,b
  2188  000FD4                     
  2189                           ; BSR set to: 0
  2190  000FD4  0E05               	movlw	5
  2191  000FD6  1999               	xorwf	sprintf@c& (0+255),w,b
  2192  000FD8  A4D8               	btfss	status,2,c
  2193  000FDA  EFF1  F007         	goto	u1561
  2194  000FDE  EFF3  F007         	goto	u1560
  2195  000FE2                     u1561:
  2196  000FE2  EFD2  F007         	goto	l2004
  2197  000FE6                     u1560:
  2198  000FE6                     l2012:
  2199                           
  2200                           ; BSR set to: 0
  2201                           ;doprnt.c: 1448: {;doprnt.c: 1464: if(flag & 0x03)
  2202  000FE6  C095  F092         	movff	sprintf@flag,??_sprintf
  2203  000FEA  0E03               	movlw	3
  2204  000FEC  1792               	andwf	??_sprintf& (0+255),f,b
  2205  000FEE  B4D8               	btfsc	status,2,c
  2206  000FF0  EFFC  F007         	goto	u1571
  2207  000FF4  EFFE  F007         	goto	u1570
  2208  000FF8                     u1571:
  2209  000FF8  EF06  F008         	goto	l2018
  2210  000FFC                     u1570:
  2211  000FFC                     
  2212                           ; BSR set to: 0
  2213                           ;doprnt.c: 1465: ((*sp++ = ('-')));
  2214  000FFC  C08C  FFD9         	movff	sprintf@sp,fsr2l
  2215  001000  C08D  FFDA         	movff	sprintf@sp+1,fsr2h
  2216  001004  0E2D               	movlw	45
  2217  001006  6EDF               	movwf	indf2,c
  2218  001008                     
  2219                           ; BSR set to: 0
  2220  001008  4B8C               	infsnz	sprintf@sp& (0+255),f,b
  2221  00100A  2B8D               	incf	(sprintf@sp+1)& (0+255),f,b
  2222  00100C                     l2018:
  2223                           
  2224                           ; BSR set to: 0
  2225                           ;doprnt.c: 1495: };doprnt.c: 1498: prec = c;
  2226  00100C  C099  F096         	movff	sprintf@c,sprintf@prec
  2227                           
  2228                           ;doprnt.c: 1500: while(prec--) {
  2229  001010  EF35  F008         	goto	l2026
  2230  001014                     l2020:
  2231                           
  2232                           ; BSR set to: 0
  2233                           ;doprnt.c: 1504: {;doprnt.c: 1515: c = (val / dpowers[(unsigned char)prec]) % 10 + '0';
  2234  001014  5196               	movf	sprintf@prec& (0+255),w,b
  2235  001016  0D02               	mullw	2
  2236  001018  0E01               	movlw	low _dpowers
  2237  00101A  24F3               	addwf	243,w,c
  2238  00101C  6EF6               	movwf	tblptrl,c
  2239  00101E  0E06               	movlw	high _dpowers
  2240  001020  20F4               	addwfc	244,w,c
  2241  001022  6EF7               	movwf	tblptrh,c
  2242  001024                     	if	0	;There are less than 3 active tblptr bytes
  2243  001024                     	endif
  2244  001024  0009               	tblrd		*+
  2245  001026  CFF5 F082          	movff	tablat,___lwdiv@divisor
  2246  00102A  000A               	tblrd		*-
  2247  00102C  CFF5 F083          	movff	tablat,___lwdiv@divisor+1
  2248  001030  C097  F080         	movff	sprintf@val,___lwdiv@dividend
  2249  001034  C098  F081         	movff	sprintf@val+1,___lwdiv@dividend+1
  2250  001038  ECCA  F00A         	call	___lwdiv	;wreg free
  2251  00103C  C080  F087         	movff	?___lwdiv,___lwmod@dividend
  2252  001040  C081  F088         	movff	?___lwdiv+1,___lwmod@dividend+1
  2253  001044  0E00               	movlw	0
  2254  001046  0100               	movlb	0	; () banked
  2255  001048  6F8A               	movwf	(___lwmod@divisor+1)& (0+255),b
  2256  00104A  0E0A               	movlw	10
  2257  00104C  6F89               	movwf	___lwmod@divisor& (0+255),b
  2258  00104E  ECEB  F00B         	call	___lwmod	;wreg free
  2259  001052  0100               	movlb	0	; () banked
  2260  001054  5187               	movf	?___lwmod& (0+255),w,b
  2261  001056  0F30               	addlw	48
  2262  001058  6F99               	movwf	sprintf@c& (0+255),b
  2263  00105A                     
  2264                           ; BSR set to: 0
  2265                           ;doprnt.c: 1549: };doprnt.c: 1550: ((*sp++ = (c)));
  2266  00105A  C08C  FFD9         	movff	sprintf@sp,fsr2l
  2267  00105E  C08D  FFDA         	movff	sprintf@sp+1,fsr2h
  2268  001062  C099  FFDF         	movff	sprintf@c,indf2
  2269  001066                     
  2270                           ; BSR set to: 0
  2271  001066  4B8C               	infsnz	sprintf@sp& (0+255),f,b
  2272  001068  2B8D               	incf	(sprintf@sp+1)& (0+255),f,b
  2273  00106A                     l2026:
  2274                           
  2275                           ; BSR set to: 0
  2276  00106A  0796               	decf	sprintf@prec& (0+255),f,b
  2277  00106C  2996               	incf	sprintf@prec& (0+255),w,b
  2278  00106E  A4D8               	btfss	status,2,c
  2279  001070  EF3C  F008         	goto	u1581
  2280  001074  EF3E  F008         	goto	u1580
  2281  001078                     u1581:
  2282  001078  EF0A  F008         	goto	l2020
  2283  00107C                     u1580:
  2284  00107C                     l2028:
  2285                           
  2286                           ; BSR set to: 0
  2287  00107C  C08E  FFF6         	movff	sprintf@f,tblptrl
  2288  001080  C08F  FFF7         	movff	sprintf@f+1,tblptrh
  2289  001084  4B8E               	infsnz	sprintf@f& (0+255),f,b
  2290  001086  2B8F               	incf	(sprintf@f+1)& (0+255),f,b
  2291  001088                     	if	0	;tblptru may be non-zero
  2292  001088                     	endif
  2293  001088                     	if	0	;tblptru may be non-zero
  2294  001088                     	endif
  2295  001088  0008               	tblrd		*
  2296  00108A  CFF5 F099          	movff	tablat,sprintf@c
  2297  00108E  5199               	movf	sprintf@c& (0+255),w,b
  2298  001090  A4D8               	btfss	status,2,c
  2299  001092  EF4D  F008         	goto	u1591
  2300  001096  EF4F  F008         	goto	u1590
  2301  00109A                     u1591:
  2302  00109A  EF8A  F007         	goto	l1976
  2303  00109E                     u1590:
  2304  00109E                     l2030:
  2305                           
  2306                           ; BSR set to: 0
  2307                           ;doprnt.c: 1564: *sp = 0;
  2308  00109E  C08C  FFD9         	movff	sprintf@sp,fsr2l
  2309  0010A2  C08D  FFDA         	movff	sprintf@sp+1,fsr2h
  2310  0010A6  0E00               	movlw	0
  2311  0010A8  6EDF               	movwf	indf2,c
  2312  0010AA                     
  2313                           ; BSR set to: 0
  2314  0010AA  0012               	return		;funcret
  2315  0010AC                     __end_of_sprintf:
  2316                           	callstack 0
  2317                           
  2318 ;; *************** function ___lwmod *****************
  2319 ;; Defined at:
  2320 ;;		line 7 in file "D:\Program Files\Microchip\xc8\v2.36\pic\sources\c90\common\lwmod.c"
  2321 ;; Parameters:    Size  Location     Type
  2322 ;;  dividend        2    7[BANK0 ] unsigned int 
  2323 ;;  divisor         2    9[BANK0 ] unsigned int 
  2324 ;; Auto vars:     Size  Location     Type
  2325 ;;  counter         1   11[BANK0 ] unsigned char 
  2326 ;; Return value:  Size  Location     Type
  2327 ;;                  2    7[BANK0 ] unsigned int 
  2328 ;; Registers used:
  2329 ;;		wreg, status,2, status,0
  2330 ;; Tracked objects:
  2331 ;;		On entry : 0/0
  2332 ;;		On exit  : 0/0
  2333 ;;		Unchanged: 0/0
  2334 ;; Data sizes:     COMRAM   BANK0   BANK1   BANK2   BANK3   BANK4   BANK5
  2335 ;;      Params:         0       4       0       0       0       0       0
  2336 ;;      Locals:         0       1       0       0       0       0       0
  2337 ;;      Temps:          0       0       0       0       0       0       0
  2338 ;;      Totals:         0       5       0       0       0       0       0
  2339 ;;Total ram usage:        5 bytes
  2340 ;; Hardware stack levels used: 1
  2341 ;; Hardware stack levels required when called: 5
  2342 ;; This function calls:
  2343 ;;		Nothing
  2344 ;; This function is called by:
  2345 ;;		_sprintf
  2346 ;; This function uses a non-reentrant model
  2347 ;;
  2348                           
  2349                           	psect	text7
  2350  0017D6                     __ptext7:
  2351                           	callstack 0
  2352  0017D6                     ___lwmod:
  2353                           	callstack 23
  2354  0017D6  0100               	movlb	0	; () banked
  2355  0017D8  5189               	movf	___lwmod@divisor& (0+255),w,b
  2356  0017DA  118A               	iorwf	(___lwmod@divisor+1)& (0+255),w,b
  2357  0017DC  B4D8               	btfsc	status,2,c
  2358  0017DE  EFF3  F00B         	goto	u1331
  2359  0017E2  EFF5  F00B         	goto	u1330
  2360  0017E6                     u1331:
  2361  0017E6  EF19  F00C         	goto	l781
  2362  0017EA                     u1330:
  2363  0017EA                     
  2364                           ; BSR set to: 0
  2365  0017EA  0E01               	movlw	1
  2366  0017EC  6F8B               	movwf	___lwmod@counter& (0+255),b
  2367  0017EE  EFFD  F00B         	goto	l1888
  2368  0017F2                     l1886:
  2369                           
  2370                           ; BSR set to: 0
  2371  0017F2  90D8               	bcf	status,0,c
  2372  0017F4  3789               	rlcf	___lwmod@divisor& (0+255),f,b
  2373  0017F6  378A               	rlcf	(___lwmod@divisor+1)& (0+255),f,b
  2374  0017F8  2B8B               	incf	___lwmod@counter& (0+255),f,b
  2375  0017FA                     l1888:
  2376                           
  2377                           ; BSR set to: 0
  2378  0017FA  AF8A               	btfss	(___lwmod@divisor+1)& (0+255),7,b
  2379  0017FC  EF02  F00C         	goto	u1341
  2380  001800  EF04  F00C         	goto	u1340
  2381  001804                     u1341:
  2382  001804  EFF9  F00B         	goto	l1886
  2383  001808                     u1340:
  2384  001808                     l1890:
  2385                           
  2386                           ; BSR set to: 0
  2387  001808  5189               	movf	___lwmod@divisor& (0+255),w,b
  2388  00180A  5D87               	subwf	___lwmod@dividend& (0+255),w,b
  2389  00180C  518A               	movf	(___lwmod@divisor+1)& (0+255),w,b
  2390  00180E  5988               	subwfb	(___lwmod@dividend+1)& (0+255),w,b
  2391  001810  A0D8               	btfss	status,0,c
  2392  001812  EF0D  F00C         	goto	u1351
  2393  001816  EF0F  F00C         	goto	u1350
  2394  00181A                     u1351:
  2395  00181A  EF13  F00C         	goto	l1894
  2396  00181E                     u1350:
  2397  00181E                     
  2398                           ; BSR set to: 0
  2399  00181E  5189               	movf	___lwmod@divisor& (0+255),w,b
  2400  001820  5F87               	subwf	___lwmod@dividend& (0+255),f,b
  2401  001822  518A               	movf	(___lwmod@divisor+1)& (0+255),w,b
  2402  001824  5B88               	subwfb	(___lwmod@dividend+1)& (0+255),f,b
  2403  001826                     l1894:
  2404                           
  2405                           ; BSR set to: 0
  2406  001826  90D8               	bcf	status,0,c
  2407  001828  338A               	rrcf	(___lwmod@divisor+1)& (0+255),f,b
  2408  00182A  3389               	rrcf	___lwmod@divisor& (0+255),f,b
  2409  00182C                     
  2410                           ; BSR set to: 0
  2411  00182C  2F8B               	decfsz	___lwmod@counter& (0+255),f,b
  2412  00182E  EF04  F00C         	goto	l1890
  2413  001832                     l781:
  2414                           
  2415                           ; BSR set to: 0
  2416  001832  C087  F087         	movff	___lwmod@dividend,?___lwmod
  2417  001836  C088  F088         	movff	___lwmod@dividend+1,?___lwmod+1
  2418  00183A                     
  2419                           ; BSR set to: 0
  2420  00183A  0012               	return		;funcret
  2421  00183C                     __end_of___lwmod:
  2422                           	callstack 0
  2423                           
  2424 ;; *************** function ___lwdiv *****************
  2425 ;; Defined at:
  2426 ;;		line 7 in file "D:\Program Files\Microchip\xc8\v2.36\pic\sources\c90\common\lwdiv.c"
  2427 ;; Parameters:    Size  Location     Type
  2428 ;;  dividend        2    0[BANK0 ] unsigned int 
  2429 ;;  divisor         2    2[BANK0 ] unsigned int 
  2430 ;; Auto vars:     Size  Location     Type
  2431 ;;  quotient        2    4[BANK0 ] unsigned int 
  2432 ;;  counter         1    6[BANK0 ] unsigned char 
  2433 ;; Return value:  Size  Location     Type
  2434 ;;                  2    0[BANK0 ] unsigned int 
  2435 ;; Registers used:
  2436 ;;		wreg, status,2, status,0
  2437 ;; Tracked objects:
  2438 ;;		On entry : 0/0
  2439 ;;		On exit  : 0/0
  2440 ;;		Unchanged: 0/0
  2441 ;; Data sizes:     COMRAM   BANK0   BANK1   BANK2   BANK3   BANK4   BANK5
  2442 ;;      Params:         0       4       0       0       0       0       0
  2443 ;;      Locals:         0       3       0       0       0       0       0
  2444 ;;      Temps:          0       0       0       0       0       0       0
  2445 ;;      Totals:         0       7       0       0       0       0       0
  2446 ;;Total ram usage:        7 bytes
  2447 ;; Hardware stack levels used: 1
  2448 ;; Hardware stack levels required when called: 5
  2449 ;; This function calls:
  2450 ;;		Nothing
  2451 ;; This function is called by:
  2452 ;;		_sprintf
  2453 ;; This function uses a non-reentrant model
  2454 ;;
  2455                           
  2456                           	psect	text8
  2457  001594                     __ptext8:
  2458                           	callstack 0
  2459  001594                     ___lwdiv:
  2460                           	callstack 23
  2461  001594  0E00               	movlw	0
  2462  001596  0100               	movlb	0	; () banked
  2463  001598  6F85               	movwf	(___lwdiv@quotient+1)& (0+255),b
  2464  00159A  0E00               	movlw	0
  2465  00159C  6F84               	movwf	___lwdiv@quotient& (0+255),b
  2466  00159E                     
  2467                           ; BSR set to: 0
  2468  00159E  5182               	movf	___lwdiv@divisor& (0+255),w,b
  2469  0015A0  1183               	iorwf	(___lwdiv@divisor+1)& (0+255),w,b
  2470  0015A2  B4D8               	btfsc	status,2,c
  2471  0015A4  EFD6  F00A         	goto	u1301
  2472  0015A8  EFD8  F00A         	goto	u1300
  2473  0015AC                     u1301:
  2474  0015AC  EF00  F00B         	goto	l771
  2475  0015B0                     u1300:
  2476  0015B0                     
  2477                           ; BSR set to: 0
  2478  0015B0  0E01               	movlw	1
  2479  0015B2  6F86               	movwf	___lwdiv@counter& (0+255),b
  2480  0015B4  EFE0  F00A         	goto	l1868
  2481  0015B8                     l1866:
  2482                           
  2483                           ; BSR set to: 0
  2484  0015B8  90D8               	bcf	status,0,c
  2485  0015BA  3782               	rlcf	___lwdiv@divisor& (0+255),f,b
  2486  0015BC  3783               	rlcf	(___lwdiv@divisor+1)& (0+255),f,b
  2487  0015BE  2B86               	incf	___lwdiv@counter& (0+255),f,b
  2488  0015C0                     l1868:
  2489                           
  2490                           ; BSR set to: 0
  2491  0015C0  AF83               	btfss	(___lwdiv@divisor+1)& (0+255),7,b
  2492  0015C2  EFE5  F00A         	goto	u1311
  2493  0015C6  EFE7  F00A         	goto	u1310
  2494  0015CA                     u1311:
  2495  0015CA  EFDC  F00A         	goto	l1866
  2496  0015CE                     u1310:
  2497  0015CE                     l1870:
  2498                           
  2499                           ; BSR set to: 0
  2500  0015CE  90D8               	bcf	status,0,c
  2501  0015D0  3784               	rlcf	___lwdiv@quotient& (0+255),f,b
  2502  0015D2  3785               	rlcf	(___lwdiv@quotient+1)& (0+255),f,b
  2503  0015D4                     
  2504                           ; BSR set to: 0
  2505  0015D4  5182               	movf	___lwdiv@divisor& (0+255),w,b
  2506  0015D6  5D80               	subwf	___lwdiv@dividend& (0+255),w,b
  2507  0015D8  5183               	movf	(___lwdiv@divisor+1)& (0+255),w,b
  2508  0015DA  5981               	subwfb	(___lwdiv@dividend+1)& (0+255),w,b
  2509  0015DC  A0D8               	btfss	status,0,c
  2510  0015DE  EFF3  F00A         	goto	u1321
  2511  0015E2  EFF5  F00A         	goto	u1320
  2512  0015E6                     u1321:
  2513  0015E6  EFFA  F00A         	goto	l1878
  2514  0015EA                     u1320:
  2515  0015EA                     
  2516                           ; BSR set to: 0
  2517  0015EA  5182               	movf	___lwdiv@divisor& (0+255),w,b
  2518  0015EC  5F80               	subwf	___lwdiv@dividend& (0+255),f,b
  2519  0015EE  5183               	movf	(___lwdiv@divisor+1)& (0+255),w,b
  2520  0015F0  5B81               	subwfb	(___lwdiv@dividend+1)& (0+255),f,b
  2521  0015F2                     
  2522                           ; BSR set to: 0
  2523  0015F2  8184               	bsf	___lwdiv@quotient& (0+255),0,b
  2524  0015F4                     l1878:
  2525                           
  2526                           ; BSR set to: 0
  2527  0015F4  90D8               	bcf	status,0,c
  2528  0015F6  3383               	rrcf	(___lwdiv@divisor+1)& (0+255),f,b
  2529  0015F8  3382               	rrcf	___lwdiv@divisor& (0+255),f,b
  2530  0015FA                     
  2531                           ; BSR set to: 0
  2532  0015FA  2F86               	decfsz	___lwdiv@counter& (0+255),f,b
  2533  0015FC  EFE7  F00A         	goto	l1870
  2534  001600                     l771:
  2535                           
  2536                           ; BSR set to: 0
  2537  001600  C084  F080         	movff	___lwdiv@quotient,?___lwdiv
  2538  001604  C085  F081         	movff	___lwdiv@quotient+1,?___lwdiv+1
  2539  001608                     
  2540                           ; BSR set to: 0
  2541  001608  0012               	return		;funcret
  2542  00160A                     __end_of___lwdiv:
  2543                           	callstack 0
  2544                           
  2545 ;; *************** function _LCD_PutChar *****************
  2546 ;; Defined at:
  2547 ;;		line 213 in file "xadrez_main.c"
  2548 ;; Parameters:    Size  Location     Type
  2549 ;;  c               2    2[BANK0 ] unsigned int 
  2550 ;; Auto vars:     Size  Location     Type
  2551 ;;		None
  2552 ;; Return value:  Size  Location     Type
  2553 ;;                  1    wreg      void 
  2554 ;; Registers used:
  2555 ;;		wreg, status,2, status,0, cstack
  2556 ;; Tracked objects:
  2557 ;;		On entry : 0/0
  2558 ;;		On exit  : 0/0
  2559 ;;		Unchanged: 0/0
  2560 ;; Data sizes:     COMRAM   BANK0   BANK1   BANK2   BANK3   BANK4   BANK5
  2561 ;;      Params:         0       2       0       0       0       0       0
  2562 ;;      Locals:         0       0       0       0       0       0       0
  2563 ;;      Temps:          0       0       0       0       0       0       0
  2564 ;;      Totals:         0       2       0       0       0       0       0
  2565 ;;Total ram usage:        2 bytes
  2566 ;; Hardware stack levels used: 1
  2567 ;; Hardware stack levels required when called: 7
  2568 ;; This function calls:
  2569 ;;		_LCD_PulseEnable
  2570 ;;		_lower
  2571 ;;		_upper
  2572 ;; This function is called by:
  2573 ;;		_escreve_tela
  2574 ;;		_tela_configura
  2575 ;; This function uses a non-reentrant model
  2576 ;;
  2577                           
  2578                           	psect	text9
  2579  001C06                     __ptext9:
  2580                           	callstack 0
  2581  001C06                     _LCD_PutChar:
  2582                           	callstack 21
  2583  001C06                     
  2584                           ;xadrez_main.c: 217: PORTDbits.RD5 = 1;
  2585  001C06  8A83               	bsf	131,5,c	;volatile
  2586  001C08                     
  2587                           ;xadrez_main.c: 218: upper(c);
  2588  001C08  C082  F080         	movff	LCD_PutChar@c,upper@c
  2589  001C0C  C083  F081         	movff	LCD_PutChar@c+1,upper@c+1
  2590  001C10  ECE6  F00C         	call	_upper	;wreg free
  2591  001C14                     
  2592                           ;xadrez_main.c: 219: LCD_PulseEnable();
  2593  001C14  EC65  F00E         	call	_LCD_PulseEnable	;wreg free
  2594  001C18                     
  2595                           ;xadrez_main.c: 220: lower(c);
  2596  001C18  C082  F080         	movff	LCD_PutChar@c,lower@c
  2597  001C1C  C083  F081         	movff	LCD_PutChar@c+1,lower@c+1
  2598  001C20  EC14  F00D         	call	_lower	;wreg free
  2599                           
  2600                           ;xadrez_main.c: 221: LCD_PulseEnable();
  2601  001C24  EC65  F00E         	call	_LCD_PulseEnable	;wreg free
  2602  001C28                     
  2603                           ;xadrez_main.c: 222: PORTDbits.RD5 = 0;
  2604  001C28  9A83               	bcf	131,5,c	;volatile
  2605  001C2A  0012               	return		;funcret
  2606  001C2C                     __end_of_LCD_PutChar:
  2607                           	callstack 0
  2608                           
  2609 ;; *************** function _passa_jogada *****************
  2610 ;; Defined at:
  2611 ;;		line 225 in file "xadrez_main.c"
  2612 ;; Parameters:    Size  Location     Type
  2613 ;;		None
  2614 ;; Auto vars:     Size  Location     Type
  2615 ;;		None
  2616 ;; Return value:  Size  Location     Type
  2617 ;;                  1    wreg      void 
  2618 ;; Registers used:
  2619 ;;		None
  2620 ;; Tracked objects:
  2621 ;;		On entry : 0/0
  2622 ;;		On exit  : 0/0
  2623 ;;		Unchanged: 0/0
  2624 ;; Data sizes:     COMRAM   BANK0   BANK1   BANK2   BANK3   BANK4   BANK5
  2625 ;;      Params:         0       0       0       0       0       0       0
  2626 ;;      Locals:         0       0       0       0       0       0       0
  2627 ;;      Temps:          0       0       0       0       0       0       0
  2628 ;;      Totals:         0       0       0       0       0       0       0
  2629 ;;Total ram usage:        0 bytes
  2630 ;; Hardware stack levels used: 1
  2631 ;; Hardware stack levels required when called: 5
  2632 ;; This function calls:
  2633 ;;		Nothing
  2634 ;; This function is called by:
  2635 ;;		_main
  2636 ;; This function uses a non-reentrant model
  2637 ;;
  2638                           
  2639                           	psect	text10
  2640  001CB6                     __ptext10:
  2641                           	callstack 0
  2642  001CB6                     _passa_jogada:
  2643                           	callstack 25
  2644  001CB6                     
  2645                           ;xadrez_main.c: 226: player = ~player;
  2646  001CB6  A879               	btfss	(_player/(0+8))^0,_player& (0+7),c
  2647  001CB8  EF60  F00E         	goto	u1851
  2648  001CBC  EF63  F00E         	goto	u1850
  2649  001CC0                     u1851:
  2650  001CC0  8879               	bsf	(_player/(0+8))^0,_player& (0+7),c
  2651  001CC2  EF64  F00E         	goto	u1865
  2652  001CC6                     u1850:
  2653  001CC6  9879               	bcf	(_player/(0+8))^0,_player& (0+7),c
  2654  001CC8                     u1865:
  2655  001CC8  0012               	return		;funcret
  2656  001CCA                     __end_of_passa_jogada:
  2657                           	callstack 0
  2658                           
  2659 ;; *************** function _inicia_registradores *****************
  2660 ;; Defined at:
  2661 ;;		line 311 in file "xadrez_main.c"
  2662 ;; Parameters:    Size  Location     Type
  2663 ;;		None
  2664 ;; Auto vars:     Size  Location     Type
  2665 ;;		None
  2666 ;; Return value:  Size  Location     Type
  2667 ;;                  1    wreg      void 
  2668 ;; Registers used:
  2669 ;;		wreg, status,2
  2670 ;; Tracked objects:
  2671 ;;		On entry : 0/0
  2672 ;;		On exit  : 0/0
  2673 ;;		Unchanged: 0/0
  2674 ;; Data sizes:     COMRAM   BANK0   BANK1   BANK2   BANK3   BANK4   BANK5
  2675 ;;      Params:         0       0       0       0       0       0       0
  2676 ;;      Locals:         0       0       0       0       0       0       0
  2677 ;;      Temps:          0       0       0       0       0       0       0
  2678 ;;      Totals:         0       0       0       0       0       0       0
  2679 ;;Total ram usage:        0 bytes
  2680 ;; Hardware stack levels used: 1
  2681 ;; Hardware stack levels required when called: 5
  2682 ;; This function calls:
  2683 ;;		Nothing
  2684 ;; This function is called by:
  2685 ;;		_main
  2686 ;; This function uses a non-reentrant model
  2687 ;;
  2688                           
  2689                           	psect	text11
  2690  001C96                     __ptext11:
  2691                           	callstack 0
  2692  001C96                     _inicia_registradores:
  2693                           	callstack 25
  2694  001C96                     
  2695                           ;xadrez_main.c: 312: ADCON1 = 0xFF;
  2696  001C96  68C1               	setf	193,c	;volatile
  2697  001C98                     
  2698                           ;xadrez_main.c: 313: TRISD = 0x00;
  2699  001C98  0E00               	movlw	0
  2700  001C9A  6E95               	movwf	149,c	;volatile
  2701                           
  2702                           ;xadrez_main.c: 314: TRISB = 0x03;
  2703  001C9C  0E03               	movlw	3
  2704  001C9E  6E93               	movwf	147,c	;volatile
  2705                           
  2706                           ;xadrez_main.c: 315: INTCON = 0xB0;
  2707  001CA0  0EB0               	movlw	176
  2708  001CA2  6EF2               	movwf	242,c	;volatile
  2709                           
  2710                           ;xadrez_main.c: 316: T0CON = 0x02;
  2711  001CA4  0E02               	movlw	2
  2712  001CA6  6ED5               	movwf	213,c	;volatile
  2713                           
  2714                           ;xadrez_main.c: 317: TMR0 = 15536;
  2715  001CA8  0E3C               	movlw	60
  2716  001CAA  6ED7               	movwf	215,c	;volatile
  2717  001CAC  0EB0               	movlw	176
  2718  001CAE  6ED6               	movwf	214,c	;volatile
  2719  001CB0                     
  2720                           ;xadrez_main.c: 318: INTCON3bits.INT1IE = 1;
  2721  001CB0  86F0               	bsf	240,3,c	;volatile
  2722  001CB2                     
  2723                           ;xadrez_main.c: 319: PORTBbits.RB7 = 0;
  2724  001CB2  9E81               	bcf	129,7,c	;volatile
  2725  001CB4  0012               	return		;funcret
  2726  001CB6                     __end_of_inicia_registradores:
  2727                           	callstack 0
  2728                           
  2729 ;; *************** function _LCD_Init *****************
  2730 ;; Defined at:
  2731 ;;		line 142 in file "xadrez_main.c"
  2732 ;; Parameters:    Size  Location     Type
  2733 ;;		None
  2734 ;; Auto vars:     Size  Location     Type
  2735 ;;		None
  2736 ;; Return value:  Size  Location     Type
  2737 ;;                  1    wreg      void 
  2738 ;; Registers used:
  2739 ;;		wreg, status,2, status,0, cstack
  2740 ;; Tracked objects:
  2741 ;;		On entry : 0/0
  2742 ;;		On exit  : 0/0
  2743 ;;		Unchanged: 0/0
  2744 ;; Data sizes:     COMRAM   BANK0   BANK1   BANK2   BANK3   BANK4   BANK5
  2745 ;;      Params:         0       0       0       0       0       0       0
  2746 ;;      Locals:         0       0       0       0       0       0       0
  2747 ;;      Temps:          0       0       0       0       0       0       0
  2748 ;;      Totals:         0       0       0       0       0       0       0
  2749 ;;Total ram usage:        0 bytes
  2750 ;; Hardware stack levels used: 1
  2751 ;; Hardware stack levels required when called: 8
  2752 ;; This function calls:
  2753 ;;		_LCD_PulseEnable
  2754 ;;		_LCD_PutCmd
  2755 ;;		_delay
  2756 ;; This function is called by:
  2757 ;;		_main
  2758 ;; This function uses a non-reentrant model
  2759 ;;
  2760                           
  2761                           	psect	text12
  2762  00167E                     __ptext12:
  2763                           	callstack 0
  2764  00167E                     _LCD_Init:
  2765                           	callstack 22
  2766  00167E                     
  2767                           ;xadrez_main.c: 143: PORTD = 0x00;
  2768  00167E  0E00               	movlw	0
  2769  001680  6E83               	movwf	131,c	;volatile
  2770                           
  2771                           ;xadrez_main.c: 144: TRISD = 0x00;
  2772  001682  0E00               	movlw	0
  2773  001684  6E95               	movwf	149,c	;volatile
  2774  001686                     
  2775                           ;xadrez_main.c: 145: delay();
  2776  001686  EC1E  F00C         	call	_delay	;wreg free
  2777  00168A                     
  2778                           ;xadrez_main.c: 146: delay();
  2779  00168A  EC1E  F00C         	call	_delay	;wreg free
  2780  00168E                     
  2781                           ;xadrez_main.c: 147: delay();
  2782  00168E  EC1E  F00C         	call	_delay	;wreg free
  2783  001692                     
  2784                           ;xadrez_main.c: 148: delay();
  2785  001692  EC1E  F00C         	call	_delay	;wreg free
  2786  001696                     
  2787                           ;xadrez_main.c: 149: PORTDbits.RD5 = 0;
  2788  001696  9A83               	bcf	131,5,c	;volatile
  2789                           
  2790                           ;xadrez_main.c: 150: PORTD = 0x03;
  2791  001698  0E03               	movlw	3
  2792  00169A  6E83               	movwf	131,c	;volatile
  2793  00169C                     
  2794                           ;xadrez_main.c: 151: LCD_PulseEnable();
  2795  00169C  EC65  F00E         	call	_LCD_PulseEnable	;wreg free
  2796  0016A0                     
  2797                           ;xadrez_main.c: 152: delay();
  2798  0016A0  EC1E  F00C         	call	_delay	;wreg free
  2799  0016A4                     
  2800                           ;xadrez_main.c: 153: LCD_PulseEnable();
  2801  0016A4  EC65  F00E         	call	_LCD_PulseEnable	;wreg free
  2802  0016A8                     
  2803                           ;xadrez_main.c: 154: delay();
  2804  0016A8  EC1E  F00C         	call	_delay	;wreg free
  2805  0016AC                     
  2806                           ;xadrez_main.c: 155: LCD_PulseEnable();
  2807  0016AC  EC65  F00E         	call	_LCD_PulseEnable	;wreg free
  2808  0016B0                     
  2809                           ;xadrez_main.c: 156: PORTD = 0x02;
  2810  0016B0  0E02               	movlw	2
  2811  0016B2  6E83               	movwf	131,c	;volatile
  2812                           
  2813                           ;xadrez_main.c: 157: LCD_PulseEnable();
  2814  0016B4  EC65  F00E         	call	_LCD_PulseEnable	;wreg free
  2815                           
  2816                           ;xadrez_main.c: 158: LCD_PutCmd(0x2C);
  2817  0016B8  0E00               	movlw	0
  2818  0016BA  0100               	movlb	0	; () banked
  2819  0016BC  6F83               	movwf	(LCD_PutCmd@c+1)& (0+255),b
  2820  0016BE  0E2C               	movlw	44
  2821  0016C0  6F82               	movwf	LCD_PutCmd@c& (0+255),b
  2822  0016C2  EC29  F00E         	call	_LCD_PutCmd	;wreg free
  2823                           
  2824                           ;xadrez_main.c: 159: LCD_PutCmd(0x0C);
  2825  0016C6  0E00               	movlw	0
  2826  0016C8  0100               	movlb	0	; () banked
  2827  0016CA  6F83               	movwf	(LCD_PutCmd@c+1)& (0+255),b
  2828  0016CC  0E0C               	movlw	12
  2829  0016CE  6F82               	movwf	LCD_PutCmd@c& (0+255),b
  2830  0016D0  EC29  F00E         	call	_LCD_PutCmd	;wreg free
  2831                           
  2832                           ;xadrez_main.c: 160: LCD_PutCmd(0x01);
  2833  0016D4  0E00               	movlw	0
  2834  0016D6  0100               	movlb	0	; () banked
  2835  0016D8  6F83               	movwf	(LCD_PutCmd@c+1)& (0+255),b
  2836  0016DA  0E01               	movlw	1
  2837  0016DC  6F82               	movwf	LCD_PutCmd@c& (0+255),b
  2838  0016DE  EC29  F00E         	call	_LCD_PutCmd	;wreg free
  2839                           
  2840                           ;xadrez_main.c: 161: LCD_PutCmd(0x06);
  2841  0016E2  0E00               	movlw	0
  2842  0016E4  0100               	movlb	0	; () banked
  2843  0016E6  6F83               	movwf	(LCD_PutCmd@c+1)& (0+255),b
  2844  0016E8  0E06               	movlw	6
  2845  0016EA  6F82               	movwf	LCD_PutCmd@c& (0+255),b
  2846  0016EC  EC29  F00E         	call	_LCD_PutCmd	;wreg free
  2847  0016F0  0012               	return		;funcret
  2848  0016F2                     __end_of_LCD_Init:
  2849                           	callstack 0
  2850                           
  2851 ;; *************** function _LCD_PutCmd *****************
  2852 ;; Defined at:
  2853 ;;		line 171 in file "xadrez_main.c"
  2854 ;; Parameters:    Size  Location     Type
  2855 ;;  c               2    2[BANK0 ] unsigned int 
  2856 ;; Auto vars:     Size  Location     Type
  2857 ;;		None
  2858 ;; Return value:  Size  Location     Type
  2859 ;;                  1    wreg      void 
  2860 ;; Registers used:
  2861 ;;		wreg, status,2, status,0, cstack
  2862 ;; Tracked objects:
  2863 ;;		On entry : 0/0
  2864 ;;		On exit  : 0/0
  2865 ;;		Unchanged: 0/0
  2866 ;; Data sizes:     COMRAM   BANK0   BANK1   BANK2   BANK3   BANK4   BANK5
  2867 ;;      Params:         0       2       0       0       0       0       0
  2868 ;;      Locals:         0       0       0       0       0       0       0
  2869 ;;      Temps:          0       0       0       0       0       0       0
  2870 ;;      Totals:         0       2       0       0       0       0       0
  2871 ;;Total ram usage:        2 bytes
  2872 ;; Hardware stack levels used: 1
  2873 ;; Hardware stack levels required when called: 7
  2874 ;; This function calls:
  2875 ;;		_LCD_PulseEnable
  2876 ;;		_lower
  2877 ;;		_upper
  2878 ;; This function is called by:
  2879 ;;		_LCD_Init
  2880 ;;		_escreve_tela
  2881 ;;		_tela_configura
  2882 ;;		_tela_placar
  2883 ;; This function uses a non-reentrant model
  2884 ;;
  2885                           
  2886                           	psect	text13
  2887  001C52                     __ptext13:
  2888                           	callstack 0
  2889  001C52                     _LCD_PutCmd:
  2890                           	callstack 21
  2891  001C52                     
  2892                           ;xadrez_main.c: 172: upper(c);
  2893  001C52  C082  F080         	movff	LCD_PutCmd@c,upper@c
  2894  001C56  C083  F081         	movff	LCD_PutCmd@c+1,upper@c+1
  2895  001C5A  ECE6  F00C         	call	_upper	;wreg free
  2896  001C5E                     
  2897                           ;xadrez_main.c: 173: LCD_PulseEnable();
  2898  001C5E  EC65  F00E         	call	_LCD_PulseEnable	;wreg free
  2899  001C62                     
  2900                           ;xadrez_main.c: 174: lower(c);
  2901  001C62  C082  F080         	movff	LCD_PutCmd@c,lower@c
  2902  001C66  C083  F081         	movff	LCD_PutCmd@c+1,lower@c+1
  2903  001C6A  EC14  F00D         	call	_lower	;wreg free
  2904                           
  2905                           ;xadrez_main.c: 175: LCD_PulseEnable();
  2906  001C6E  EC65  F00E         	call	_LCD_PulseEnable	;wreg free
  2907  001C72  0012               	return		;funcret
  2908  001C74                     __end_of_LCD_PutCmd:
  2909                           	callstack 0
  2910                           
  2911 ;; *************** function _upper *****************
  2912 ;; Defined at:
  2913 ;;		line 190 in file "xadrez_main.c"
  2914 ;; Parameters:    Size  Location     Type
  2915 ;;  c               2    0[BANK0 ] unsigned int 
  2916 ;; Auto vars:     Size  Location     Type
  2917 ;;		None
  2918 ;; Return value:  Size  Location     Type
  2919 ;;                  1    wreg      void 
  2920 ;; Registers used:
  2921 ;;		None
  2922 ;; Tracked objects:
  2923 ;;		On entry : 0/0
  2924 ;;		On exit  : 0/0
  2925 ;;		Unchanged: 0/0
  2926 ;; Data sizes:     COMRAM   BANK0   BANK1   BANK2   BANK3   BANK4   BANK5
  2927 ;;      Params:         0       2       0       0       0       0       0
  2928 ;;      Locals:         0       0       0       0       0       0       0
  2929 ;;      Temps:          0       0       0       0       0       0       0
  2930 ;;      Totals:         0       2       0       0       0       0       0
  2931 ;;Total ram usage:        2 bytes
  2932 ;; Hardware stack levels used: 1
  2933 ;; Hardware stack levels required when called: 5
  2934 ;; This function calls:
  2935 ;;		Nothing
  2936 ;; This function is called by:
  2937 ;;		_LCD_PutCmd
  2938 ;;		_LCD_PutChar
  2939 ;;		_LCD_SetPosition
  2940 ;; This function uses a non-reentrant model
  2941 ;;
  2942                           
  2943                           	psect	text14
  2944  0019CC                     __ptext14:
  2945                           	callstack 0
  2946  0019CC                     _upper:
  2947                           	callstack 22
  2948  0019CC                     
  2949                           ;xadrez_main.c: 191: if (c & 0x80) PORTDbits.RD3 = 1;
  2950  0019CC  0100               	movlb	0	; () banked
  2951  0019CE  AF80               	btfss	upper@c& (0+255),7,b
  2952  0019D0  EFEC  F00C         	goto	u1181
  2953  0019D4  EFEE  F00C         	goto	u1180
  2954  0019D8                     u1181:
  2955  0019D8  EFF1  F00C         	goto	l135
  2956  0019DC                     u1180:
  2957  0019DC                     
  2958                           ; BSR set to: 0
  2959  0019DC  8683               	bsf	131,3,c	;volatile
  2960  0019DE  EFF2  F00C         	goto	l136
  2961  0019E2                     l135:
  2962                           
  2963                           ; BSR set to: 0
  2964                           ;xadrez_main.c: 192: else PORTDbits.RD3 = 0;
  2965  0019E2  9683               	bcf	131,3,c	;volatile
  2966  0019E4                     l136:
  2967                           
  2968                           ; BSR set to: 0
  2969                           ;xadrez_main.c: 193: if (c & 0x40) PORTDbits.RD2 = 1;
  2970  0019E4  AD80               	btfss	upper@c& (0+255),6,b
  2971  0019E6  EFF7  F00C         	goto	u1191
  2972  0019EA  EFF9  F00C         	goto	u1190
  2973  0019EE                     u1191:
  2974  0019EE  EFFC  F00C         	goto	l137
  2975  0019F2                     u1190:
  2976  0019F2                     
  2977                           ; BSR set to: 0
  2978  0019F2  8483               	bsf	131,2,c	;volatile
  2979  0019F4  EFFD  F00C         	goto	l138
  2980  0019F8                     l137:
  2981                           
  2982                           ; BSR set to: 0
  2983                           ;xadrez_main.c: 194: else;xadrez_main.c: 195: PORTDbits.RD2 = 0;
  2984  0019F8  9483               	bcf	131,2,c	;volatile
  2985  0019FA                     l138:
  2986                           
  2987                           ; BSR set to: 0
  2988                           ;xadrez_main.c: 196: if (c & 0x20) PORTDbits.RD1 = 1;
  2989  0019FA  AB80               	btfss	upper@c& (0+255),5,b
  2990  0019FC  EF02  F00D         	goto	u1201
  2991  001A00  EF04  F00D         	goto	u1200
  2992  001A04                     u1201:
  2993  001A04  EF07  F00D         	goto	l139
  2994  001A08                     u1200:
  2995  001A08                     
  2996                           ; BSR set to: 0
  2997  001A08  8283               	bsf	131,1,c	;volatile
  2998  001A0A  EF08  F00D         	goto	l140
  2999  001A0E                     l139:
  3000                           
  3001                           ; BSR set to: 0
  3002                           ;xadrez_main.c: 197: else PORTDbits.RD1 = 0;
  3003  001A0E  9283               	bcf	131,1,c	;volatile
  3004  001A10                     l140:
  3005                           
  3006                           ; BSR set to: 0
  3007                           ;xadrez_main.c: 198: if (c & 0x10) PORTDbits.RD0 = 1;
  3008  001A10  A980               	btfss	upper@c& (0+255),4,b
  3009  001A12  EF0D  F00D         	goto	u1211
  3010  001A16  EF0F  F00D         	goto	u1210
  3011  001A1A                     u1211:
  3012  001A1A  EF12  F00D         	goto	l141
  3013  001A1E                     u1210:
  3014  001A1E                     
  3015                           ; BSR set to: 0
  3016  001A1E  8083               	bsf	131,0,c	;volatile
  3017  001A20  EF13  F00D         	goto	l143
  3018  001A24                     l141:
  3019                           
  3020                           ; BSR set to: 0
  3021                           ;xadrez_main.c: 199: else PORTDbits.RD0 = 0;
  3022  001A24  9083               	bcf	131,0,c	;volatile
  3023  001A26                     l143:
  3024                           
  3025                           ; BSR set to: 0
  3026  001A26  0012               	return		;funcret
  3027  001A28                     __end_of_upper:
  3028                           	callstack 0
  3029                           
  3030 ;; *************** function _lower *****************
  3031 ;; Defined at:
  3032 ;;		line 202 in file "xadrez_main.c"
  3033 ;; Parameters:    Size  Location     Type
  3034 ;;  c               2    0[BANK0 ] unsigned int 
  3035 ;; Auto vars:     Size  Location     Type
  3036 ;;		None
  3037 ;; Return value:  Size  Location     Type
  3038 ;;                  1    wreg      void 
  3039 ;; Registers used:
  3040 ;;		None
  3041 ;; Tracked objects:
  3042 ;;		On entry : 0/0
  3043 ;;		On exit  : 0/0
  3044 ;;		Unchanged: 0/0
  3045 ;; Data sizes:     COMRAM   BANK0   BANK1   BANK2   BANK3   BANK4   BANK5
  3046 ;;      Params:         0       2       0       0       0       0       0
  3047 ;;      Locals:         0       0       0       0       0       0       0
  3048 ;;      Temps:          0       0       0       0       0       0       0
  3049 ;;      Totals:         0       2       0       0       0       0       0
  3050 ;;Total ram usage:        2 bytes
  3051 ;; Hardware stack levels used: 1
  3052 ;; Hardware stack levels required when called: 5
  3053 ;; This function calls:
  3054 ;;		Nothing
  3055 ;; This function is called by:
  3056 ;;		_LCD_PutCmd
  3057 ;;		_LCD_PutChar
  3058 ;;		_LCD_SetPosition
  3059 ;; This function uses a non-reentrant model
  3060 ;;
  3061                           
  3062                           	psect	text15
  3063  001A28                     __ptext15:
  3064                           	callstack 0
  3065  001A28                     _lower:
  3066                           	callstack 22
  3067  001A28                     
  3068                           ;xadrez_main.c: 203: if (c & 0x08) PORTDbits.RD3 = 1;
  3069  001A28  0100               	movlb	0	; () banked
  3070  001A2A  A780               	btfss	lower@c& (0+255),3,b
  3071  001A2C  EF1A  F00D         	goto	u1221
  3072  001A30  EF1C  F00D         	goto	u1220
  3073  001A34                     u1221:
  3074  001A34  EF1F  F00D         	goto	l146
  3075  001A38                     u1220:
  3076  001A38                     
  3077                           ; BSR set to: 0
  3078  001A38  8683               	bsf	131,3,c	;volatile
  3079  001A3A  EF20  F00D         	goto	l147
  3080  001A3E                     l146:
  3081                           
  3082                           ; BSR set to: 0
  3083                           ;xadrez_main.c: 204: else PORTDbits.RD3 = 0;
  3084  001A3E  9683               	bcf	131,3,c	;volatile
  3085  001A40                     l147:
  3086                           
  3087                           ; BSR set to: 0
  3088                           ;xadrez_main.c: 205: if (c & 0x04) PORTDbits.RD2 = 1;
  3089  001A40  A580               	btfss	lower@c& (0+255),2,b
  3090  001A42  EF25  F00D         	goto	u1231
  3091  001A46  EF27  F00D         	goto	u1230
  3092  001A4A                     u1231:
  3093  001A4A  EF2A  F00D         	goto	l148
  3094  001A4E                     u1230:
  3095  001A4E                     
  3096                           ; BSR set to: 0
  3097  001A4E  8483               	bsf	131,2,c	;volatile
  3098  001A50  EF2B  F00D         	goto	l149
  3099  001A54                     l148:
  3100                           
  3101                           ; BSR set to: 0
  3102                           ;xadrez_main.c: 206: else PORTDbits.RD2 = 0;
  3103  001A54  9483               	bcf	131,2,c	;volatile
  3104  001A56                     l149:
  3105                           
  3106                           ; BSR set to: 0
  3107                           ;xadrez_main.c: 207: if (c & 0x02) PORTDbits.RD1 = 1;
  3108  001A56  A380               	btfss	lower@c& (0+255),1,b
  3109  001A58  EF30  F00D         	goto	u1241
  3110  001A5C  EF32  F00D         	goto	u1240
  3111  001A60                     u1241:
  3112  001A60  EF35  F00D         	goto	l150
  3113  001A64                     u1240:
  3114  001A64                     
  3115                           ; BSR set to: 0
  3116  001A64  8283               	bsf	131,1,c	;volatile
  3117  001A66  EF36  F00D         	goto	l151
  3118  001A6A                     l150:
  3119                           
  3120                           ; BSR set to: 0
  3121                           ;xadrez_main.c: 208: else PORTDbits.RD1 = 0;
  3122  001A6A  9283               	bcf	131,1,c	;volatile
  3123  001A6C                     l151:
  3124                           
  3125                           ; BSR set to: 0
  3126                           ;xadrez_main.c: 209: if (c & 0x01) PORTDbits.RD0 = 1;
  3127  001A6C  A180               	btfss	lower@c& (0+255),0,b
  3128  001A6E  EF3B  F00D         	goto	u1251
  3129  001A72  EF3D  F00D         	goto	u1250
  3130  001A76                     u1251:
  3131  001A76  EF40  F00D         	goto	l152
  3132  001A7A                     u1250:
  3133  001A7A                     
  3134                           ; BSR set to: 0
  3135  001A7A  8083               	bsf	131,0,c	;volatile
  3136  001A7C  EF41  F00D         	goto	l154
  3137  001A80                     l152:
  3138                           
  3139                           ; BSR set to: 0
  3140                           ;xadrez_main.c: 210: else PORTDbits.RD0 = 0;
  3141  001A80  9083               	bcf	131,0,c	;volatile
  3142  001A82                     l154:
  3143                           
  3144                           ; BSR set to: 0
  3145  001A82  0012               	return		;funcret
  3146  001A84                     __end_of_lower:
  3147                           	callstack 0
  3148                           
  3149 ;; *************** function _LCD_PulseEnable *****************
  3150 ;; Defined at:
  3151 ;;		line 178 in file "xadrez_main.c"
  3152 ;; Parameters:    Size  Location     Type
  3153 ;;		None
  3154 ;; Auto vars:     Size  Location     Type
  3155 ;;		None
  3156 ;; Return value:  Size  Location     Type
  3157 ;;                  1    wreg      void 
  3158 ;; Registers used:
  3159 ;;		wreg, status,2, status,0, cstack
  3160 ;; Tracked objects:
  3161 ;;		On entry : 0/0
  3162 ;;		On exit  : 0/0
  3163 ;;		Unchanged: 0/0
  3164 ;; Data sizes:     COMRAM   BANK0   BANK1   BANK2   BANK3   BANK4   BANK5
  3165 ;;      Params:         0       0       0       0       0       0       0
  3166 ;;      Locals:         0       0       0       0       0       0       0
  3167 ;;      Temps:          0       0       0       0       0       0       0
  3168 ;;      Totals:         0       0       0       0       0       0       0
  3169 ;;Total ram usage:        0 bytes
  3170 ;; Hardware stack levels used: 1
  3171 ;; Hardware stack levels required when called: 6
  3172 ;; This function calls:
  3173 ;;		_delay
  3174 ;; This function is called by:
  3175 ;;		_LCD_Init
  3176 ;;		_LCD_PutCmd
  3177 ;;		_LCD_PutChar
  3178 ;;		_LCD_SetPosition
  3179 ;; This function uses a non-reentrant model
  3180 ;;
  3181                           
  3182                           	psect	text16
  3183  001CCA                     __ptext16:
  3184                           	callstack 0
  3185  001CCA                     _LCD_PulseEnable:
  3186                           	callstack 21
  3187  001CCA                     
  3188                           ;xadrez_main.c: 179: PORTDbits.RD4 = 1;
  3189  001CCA  8883               	bsf	131,4,c	;volatile
  3190  001CCC                     
  3191                           ;xadrez_main.c: 180: delay();
  3192  001CCC  EC1E  F00C         	call	_delay	;wreg free
  3193  001CD0                     
  3194                           ;xadrez_main.c: 181: PORTDbits.RD4 = 0;
  3195  001CD0  9883               	bcf	131,4,c	;volatile
  3196                           
  3197                           ;xadrez_main.c: 182: delay();
  3198  001CD2  EC1E  F00C         	call	_delay	;wreg free
  3199  001CD6  0012               	return		;funcret
  3200  001CD8                     __end_of_LCD_PulseEnable:
  3201                           	callstack 0
  3202                           
  3203 ;; *************** function _delay *****************
  3204 ;; Defined at:
  3205 ;;		line 185 in file "xadrez_main.c"
  3206 ;; Parameters:    Size  Location     Type
  3207 ;;		None
  3208 ;; Auto vars:     Size  Location     Type
  3209 ;;		None
  3210 ;; Return value:  Size  Location     Type
  3211 ;;                  1    wreg      void 
  3212 ;; Registers used:
  3213 ;;		wreg, status,2, status,0
  3214 ;; Tracked objects:
  3215 ;;		On entry : 0/0
  3216 ;;		On exit  : 0/0
  3217 ;;		Unchanged: 0/0
  3218 ;; Data sizes:     COMRAM   BANK0   BANK1   BANK2   BANK3   BANK4   BANK5
  3219 ;;      Params:         0       0       0       0       0       0       0
  3220 ;;      Locals:         0       0       0       0       0       0       0
  3221 ;;      Temps:          0       0       0       0       0       0       0
  3222 ;;      Totals:         0       0       0       0       0       0       0
  3223 ;;Total ram usage:        0 bytes
  3224 ;; Hardware stack levels used: 1
  3225 ;; Hardware stack levels required when called: 5
  3226 ;; This function calls:
  3227 ;;		Nothing
  3228 ;; This function is called by:
  3229 ;;		_LCD_Init
  3230 ;;		_LCD_PulseEnable
  3231 ;; This function uses a non-reentrant model
  3232 ;;
  3233                           
  3234                           	psect	text17
  3235  00183C                     __ptext17:
  3236                           	callstack 0
  3237  00183C                     _delay:
  3238                           	callstack 21
  3239  00183C                     
  3240                           ;xadrez_main.c: 186: for (count = 1; count < 500; count++){
  3241  00183C  0E01               	movlw	1
  3242  00183E  6E5C               	movwf	_count^0,c
  3243  001840  0E00               	movlw	0
  3244  001842  6E5D               	movwf	(_count+1)^0,c
  3245  001844  0E00               	movlw	0
  3246  001846  6E5E               	movwf	(_count+2)^0,c
  3247  001848  0E00               	movlw	0
  3248  00184A  6E5F               	movwf	(_count+3)^0,c
  3249  00184C  BE5F               	btfsc	(_count+3)^0,7,c
  3250  00184E  EF35  F00C         	goto	u1161
  3251  001852  505F               	movf	(_count+3)^0,w,c
  3252  001854  105E               	iorwf	(_count+2)^0,w,c
  3253  001856  E10B               	bnz	u1160
  3254  001858  0EF4               	movlw	244
  3255  00185A  5C5C               	subwf	_count^0,w,c
  3256  00185C  0E01               	movlw	1
  3257  00185E  585D               	subwfb	(_count+1)^0,w,c
  3258  001860  A0D8               	btfss	status,0,c
  3259  001862  EF35  F00C         	goto	u1161
  3260  001866  EF37  F00C         	goto	u1160
  3261  00186A                     u1161:
  3262  00186A  EF39  F00C         	goto	l1798
  3263  00186E                     u1160:
  3264  00186E  EF50  F00C         	goto	l132
  3265  001872                     l1798:
  3266  001872  0E01               	movlw	1
  3267  001874  265C               	addwf	_count^0,f,c
  3268  001876  0E00               	movlw	0
  3269  001878  225D               	addwfc	(_count+1)^0,f,c
  3270  00187A  225E               	addwfc	(_count+2)^0,f,c
  3271  00187C  225F               	addwfc	(_count+3)^0,f,c
  3272  00187E  BE5F               	btfsc	(_count+3)^0,7,c
  3273  001880  EF4E  F00C         	goto	u1171
  3274  001884  505F               	movf	(_count+3)^0,w,c
  3275  001886  105E               	iorwf	(_count+2)^0,w,c
  3276  001888  E10B               	bnz	u1170
  3277  00188A  0EF4               	movlw	244
  3278  00188C  5C5C               	subwf	_count^0,w,c
  3279  00188E  0E01               	movlw	1
  3280  001890  585D               	subwfb	(_count+1)^0,w,c
  3281  001892  A0D8               	btfss	status,0,c
  3282  001894  EF4E  F00C         	goto	u1171
  3283  001898  EF50  F00C         	goto	u1170
  3284  00189C                     u1171:
  3285  00189C  EF39  F00C         	goto	l1798
  3286  0018A0                     u1170:
  3287  0018A0                     l132:
  3288  0018A0  0012               	return		;funcret
  3289  0018A2                     __end_of_delay:
  3290                           	callstack 0
  3291                           
  3292 ;; *************** function _EEPROM_Write *****************
  3293 ;; Defined at:
  3294 ;;		line 370 in file "xadrez_main.c"
  3295 ;; Parameters:    Size  Location     Type
  3296 ;;  address         2    0[BANK0 ] int 
  3297 ;;  data            1    2[BANK0 ] unsigned char 
  3298 ;; Auto vars:     Size  Location     Type
  3299 ;;		None
  3300 ;; Return value:  Size  Location     Type
  3301 ;;                  1    wreg      void 
  3302 ;; Registers used:
  3303 ;;		wreg, status,2
  3304 ;; Tracked objects:
  3305 ;;		On entry : 0/0
  3306 ;;		On exit  : 0/0
  3307 ;;		Unchanged: 0/0
  3308 ;; Data sizes:     COMRAM   BANK0   BANK1   BANK2   BANK3   BANK4   BANK5
  3309 ;;      Params:         0       3       0       0       0       0       0
  3310 ;;      Locals:         0       0       0       0       0       0       0
  3311 ;;      Temps:          0       0       0       0       0       0       0
  3312 ;;      Totals:         0       3       0       0       0       0       0
  3313 ;;Total ram usage:        3 bytes
  3314 ;; Hardware stack levels used: 1
  3315 ;; Hardware stack levels required when called: 5
  3316 ;; This function calls:
  3317 ;;		Nothing
  3318 ;; This function is called by:
  3319 ;;		_main
  3320 ;; This function uses a non-reentrant model
  3321 ;;
  3322                           
  3323                           	psect	text18
  3324  001BD8                     __ptext18:
  3325                           	callstack 0
  3326  001BD8                     _EEPROM_Write:
  3327                           	callstack 25
  3328  001BD8                     
  3329                           ;xadrez_main.c: 373: EEADR=address;
  3330  001BD8  C080  FFA9         	movff	EEPROM_Write@address,4009	;volatile
  3331                           
  3332                           ;xadrez_main.c: 374: EEDATA=data;
  3333  001BDC  C082  FFA8         	movff	EEPROM_Write@data,4008	;volatile
  3334                           
  3335                           ;xadrez_main.c: 376: EECON1bits.EEPGD=0;
  3336  001BE0  9EA6               	bcf	166,7,c	;volsfr
  3337                           
  3338                           ;xadrez_main.c: 377: EECON1bits.CFGS=0;
  3339  001BE2  9CA6               	bcf	166,6,c	;volsfr
  3340                           
  3341                           ;xadrez_main.c: 378: EECON1bits.WREN=1;
  3342  001BE4  84A6               	bsf	166,2,c	;volsfr
  3343                           
  3344                           ;xadrez_main.c: 379: INTCONbits.GIE=0;
  3345  001BE6  9EF2               	bcf	242,7,c	;volatile
  3346  001BE8                     
  3347                           ;xadrez_main.c: 384: EECON2=0x55;
  3348  001BE8  0E55               	movlw	85
  3349  001BEA  6EA7               	movwf	167,c	;volsfr
  3350                           
  3351                           ;xadrez_main.c: 385: EECON2=0xaa;
  3352  001BEC  0EAA               	movlw	170
  3353  001BEE  6EA7               	movwf	167,c	;volsfr
  3354  001BF0                     
  3355                           ;xadrez_main.c: 387: EECON1bits.WR=1;
  3356  001BF0  82A6               	bsf	166,1,c	;volsfr
  3357  001BF2                     
  3358                           ;xadrez_main.c: 388: INTCONbits.GIE=1;
  3359  001BF2  8EF2               	bsf	242,7,c	;volatile
  3360  001BF4                     l232:
  3361  001BF4  A8A1               	btfss	161,4,c	;volatile
  3362  001BF6  EFFF  F00D         	goto	u2031
  3363  001BFA  EF01  F00E         	goto	u2030
  3364  001BFE                     u2031:
  3365  001BFE  EFFA  F00D         	goto	l232
  3366  001C02                     u2030:
  3367  001C02                     
  3368                           ;xadrez_main.c: 391: PIR2bits.EEIF=0;
  3369  001C02  98A1               	bcf	161,4,c	;volatile
  3370  001C04  0012               	return		;funcret
  3371  001C06                     __end_of_EEPROM_Write:
  3372                           	callstack 0
  3373                           
  3374 ;; *************** function _EEPROM_Read *****************
  3375 ;; Defined at:
  3376 ;;		line 394 in file "xadrez_main.c"
  3377 ;; Parameters:    Size  Location     Type
  3378 ;;  address         2    0[BANK0 ] int 
  3379 ;; Auto vars:     Size  Location     Type
  3380 ;;		None
  3381 ;; Return value:  Size  Location     Type
  3382 ;;                  1    wreg      unsigned char 
  3383 ;; Registers used:
  3384 ;;		wreg, status,2
  3385 ;; Tracked objects:
  3386 ;;		On entry : 0/0
  3387 ;;		On exit  : 0/0
  3388 ;;		Unchanged: 0/0
  3389 ;; Data sizes:     COMRAM   BANK0   BANK1   BANK2   BANK3   BANK4   BANK5
  3390 ;;      Params:         0       2       0       0       0       0       0
  3391 ;;      Locals:         0       0       0       0       0       0       0
  3392 ;;      Temps:          0       0       0       0       0       0       0
  3393 ;;      Totals:         0       2       0       0       0       0       0
  3394 ;;Total ram usage:        2 bytes
  3395 ;; Hardware stack levels used: 1
  3396 ;; Hardware stack levels required when called: 5
  3397 ;; This function calls:
  3398 ;;		Nothing
  3399 ;; This function is called by:
  3400 ;;		_main
  3401 ;; This function uses a non-reentrant model
  3402 ;;
  3403                           
  3404                           	psect	text19
  3405  001CD8                     __ptext19:
  3406                           	callstack 0
  3407  001CD8                     _EEPROM_Read:
  3408                           	callstack 25
  3409  001CD8                     
  3410                           ;xadrez_main.c: 397: EEADR=address;
  3411  001CD8  C080  FFA9         	movff	EEPROM_Read@address,4009	;volatile
  3412                           
  3413                           ;xadrez_main.c: 398: EECON1bits.WREN=0;
  3414  001CDC  94A6               	bcf	166,2,c	;volsfr
  3415                           
  3416                           ;xadrez_main.c: 399: EECON1bits.EEPGD=0;
  3417  001CDE  9EA6               	bcf	166,7,c	;volsfr
  3418                           
  3419                           ;xadrez_main.c: 400: EECON1bits.RD=1;
  3420  001CE0  80A6               	bsf	166,0,c	;volsfr
  3421  001CE2                     
  3422                           ;xadrez_main.c: 401: return(EEDATA);
  3423  001CE2  50A8               	movf	168,w,c	;volatile
  3424  001CE4  0012               	return		;funcret
  3425  001CE6                     __end_of_EEPROM_Read:
  3426                           	callstack 0
  3427                           
  3428 ;; *************** function _interrupcoes *****************
  3429 ;; Defined at:
  3430 ;;		line 61 in file "xadrez_main.c"
  3431 ;; Parameters:    Size  Location     Type
  3432 ;;		None
  3433 ;; Auto vars:     Size  Location     Type
  3434 ;;		None
  3435 ;; Return value:  Size  Location     Type
  3436 ;;                  1    wreg      void 
  3437 ;; Registers used:
  3438 ;;		wreg, fsr0l, fsr0h, fsr1l, fsr1h, fsr2l, fsr2h, status,2, status,0, tblptrl, tblptrh, tblptru, prodl, prodh, cstack
  3439 ;; Tracked objects:
  3440 ;;		On entry : 0/0
  3441 ;;		On exit  : 0/0
  3442 ;;		Unchanged: 0/0
  3443 ;; Data sizes:     COMRAM   BANK0   BANK1   BANK2   BANK3   BANK4   BANK5
  3444 ;;      Params:         0       0       0       0       0       0       0
  3445 ;;      Locals:         0       0       0       0       0       0       0
  3446 ;;      Temps:         14       0       0       0       0       0       0
  3447 ;;      Totals:        14       0       0       0       0       0       0
  3448 ;;Total ram usage:       14 bytes
  3449 ;; Hardware stack levels used: 1
  3450 ;; Hardware stack levels required when called: 4
  3451 ;; This function calls:
  3452 ;;		_atualiza_tempo
  3453 ;;		_bipa
  3454 ;;		i2_LCD_PutCmd
  3455 ;;		i2_escreve_tela
  3456 ;; This function is called by:
  3457 ;;		Interrupt level 2
  3458 ;; This function uses a non-reentrant model
  3459 ;;
  3460                           
  3461                           	psect	intcode
  3462  000008                     __pintcode:
  3463                           	callstack 0
  3464  000008                     _interrupcoes:
  3465                           	callstack 21
  3466                           
  3467                           ;incstack = 0
  3468  000008  827A               	bsf	int$flags,1,c	;set compiler interrupt flag (level 2)
  3469  00000A  ED8F  F005         	call	int_func,f	;refresh shadow registers
  3470                           
  3471                           	psect	intcode_body
  3472  000B1E                     __pintcode_body:
  3473                           	callstack 21
  3474  000B1E                     int_func:
  3475                           	callstack 21
  3476  000B1E  0006               	pop		; remove dummy address from shadow register refresh
  3477  000B20  CFE9 F050          	movff	fsr0l,??_interrupcoes+2
  3478  000B24  CFEA F051          	movff	fsr0h,??_interrupcoes+3
  3479  000B28  CFE1 F052          	movff	fsr1l,??_interrupcoes+4
  3480  000B2C  CFE2 F053          	movff	fsr1h,??_interrupcoes+5
  3481  000B30  CFD9 F054          	movff	fsr2l,??_interrupcoes+6
  3482  000B34  CFDA F055          	movff	fsr2h,??_interrupcoes+7
  3483  000B38  CFF3 F056          	movff	prodl,??_interrupcoes+8
  3484  000B3C  CFF4 F057          	movff	prodh,??_interrupcoes+9
  3485  000B40  CFF6 F058          	movff	tblptrl,??_interrupcoes+10
  3486  000B44  CFF7 F059          	movff	tblptrh,??_interrupcoes+11
  3487  000B48  CFF8 F05A          	movff	tblptru,??_interrupcoes+12
  3488  000B4C  CFF5 F05B          	movff	tablat,??_interrupcoes+13
  3489  000B50                     
  3490                           ;xadrez_main.c: 62: if (INTCONbits.TMR0IF) {
  3491  000B50  A4F2               	btfss	242,2,c	;volatile
  3492  000B52  EFAD  F005         	goto	i2u207_41
  3493  000B56  EFAF  F005         	goto	i2u207_40
  3494  000B5A                     i2u207_41:
  3495  000B5A  EF80  F006         	goto	i2l2428
  3496  000B5E                     i2u207_40:
  3497  000B5E                     
  3498                           ;xadrez_main.c: 63: INTCONbits.TMR0IF = 0;
  3499  000B5E  94F2               	bcf	242,2,c	;volatile
  3500                           
  3501                           ;xadrez_main.c: 64: if (player) {
  3502  000B60  A879               	btfss	(_player/(0+8))^0,_player& (0+7),c
  3503  000B62  EFB5  F005         	goto	i2u208_41
  3504  000B66  EFB7  F005         	goto	i2u208_40
  3505  000B6A                     i2u208_41:
  3506  000B6A  EF18  F006         	goto	i2l2390
  3507  000B6E                     i2u208_40:
  3508  000B6E                     
  3509                           ;xadrez_main.c: 65: TMR0 = 15536;
  3510  000B6E  0E3C               	movlw	60
  3511  000B70  6ED7               	movwf	215,c	;volatile
  3512  000B72  0EB0               	movlw	176
  3513  000B74  6ED6               	movwf	214,c	;volatile
  3514  000B76                     
  3515                           ;xadrez_main.c: 66: mili2--;
  3516  000B76  0677               	decf	_mili2^0,f,c
  3517  000B78                     
  3518                           ;xadrez_main.c: 67: if(mili2 == 0){
  3519  000B78  5077               	movf	_mili2^0,w,c
  3520  000B7A  A4D8               	btfss	status,2,c
  3521  000B7C  EFC2  F005         	goto	i2u209_41
  3522  000B80  EFC4  F005         	goto	i2u209_40
  3523  000B84                     i2u209_41:
  3524  000B84  EFC9  F005         	goto	i2l2364
  3525  000B88                     i2u209_40:
  3526  000B88                     
  3527                           ;xadrez_main.c: 68: seg2--;
  3528  000B88  0668               	decf	_seg2^0,f,c
  3529  000B8A  A0D8               	btfss	status,0,c
  3530  000B8C  0669               	decf	(_seg2+1)^0,f,c
  3531  000B8E                     
  3532                           ;xadrez_main.c: 69: mili2 = 10;
  3533  000B8E  0E0A               	movlw	10
  3534  000B90  6E77               	movwf	_mili2^0,c
  3535  000B92                     i2l2364:
  3536                           
  3537                           ;xadrez_main.c: 70: };xadrez_main.c: 71: if(min2 ==0 && seg2 == 0){
  3538  000B92  5064               	movf	_min2^0,w,c
  3539  000B94  1065               	iorwf	(_min2+1)^0,w,c
  3540  000B96  A4D8               	btfss	status,2,c
  3541  000B98  EFD0  F005         	goto	i2u210_41
  3542  000B9C  EFD2  F005         	goto	i2u210_40
  3543  000BA0                     i2u210_41:
  3544  000BA0  EF05  F006         	goto	i2l2382
  3545  000BA4                     i2u210_40:
  3546  000BA4  5068               	movf	_seg2^0,w,c
  3547  000BA6  1069               	iorwf	(_seg2+1)^0,w,c
  3548  000BA8  A4D8               	btfss	status,2,c
  3549  000BAA  EFD9  F005         	goto	i2u211_41
  3550  000BAE  EFDB  F005         	goto	i2u211_40
  3551  000BB2                     i2u211_41:
  3552  000BB2  EF05  F006         	goto	i2l2382
  3553  000BB6                     i2u211_40:
  3554  000BB6                     
  3555                           ;xadrez_main.c: 72: T0CONbits.TMR0ON = 0;
  3556  000BB6  9ED5               	bcf	213,7,c	;volatile
  3557  000BB8                     
  3558                           ;xadrez_main.c: 73: atualiza_tempo();
  3559  000BB8  EC68  F004         	call	_atualiza_tempo	;wreg free
  3560  000BBC                     
  3561                           ;xadrez_main.c: 74: _delay((unsigned long)((1000)*(16000000/4000.0)));
  3562  000BBC  0E15               	movlw	21
  3563  000BBE  6E4F               	movwf	(??_interrupcoes+1)^0,c
  3564  000BC0  0E4B               	movlw	75
  3565  000BC2  6E4E               	movwf	??_interrupcoes^0,c
  3566  000BC4  0EBE               	movlw	190
  3567  000BC6                     i2u235_47:
  3568  000BC6  2EE8               	decfsz	wreg,f,c
  3569  000BC8  D7FE               	bra	i2u235_47
  3570  000BCA  2E4E               	decfsz	??_interrupcoes^0,f,c
  3571  000BCC  D7FC               	bra	i2u235_47
  3572  000BCE  2E4F               	decfsz	(??_interrupcoes+1)^0,f,c
  3573  000BD0  D7FA               	bra	i2u235_47
  3574  000BD2  D000               	nop2	
  3575  000BD4                     
  3576                           ;xadrez_main.c: 75: LCD_PutCmd(0x01);
  3577  000BD4  0E00               	movlw	0
  3578  000BD6  6E04               	movwf	(i2LCD_PutCmd@c+1)^0,c
  3579  000BD8  0E01               	movlw	1
  3580  000BDA  6E03               	movwf	i2LCD_PutCmd@c^0,c
  3581  000BDC  EC3A  F00E         	call	i2_LCD_PutCmd	;wreg free
  3582  000BE0                     
  3583                           ;xadrez_main.c: 76: escreve_tela("Vencedor",0);
  3584  000BE0  0E21               	movlw	low STR_1
  3585  000BE2  6E05               	movwf	i2escreve_tela@mensagem^0,c
  3586  000BE4  0E06               	movlw	high STR_1
  3587  000BE6  6E06               	movwf	(i2escreve_tela@mensagem+1)^0,c
  3588  000BE8  0E00               	movlw	0
  3589  000BEA  6E07               	movwf	i2escreve_tela@linha^0,c
  3590  000BEC  EC86  F00A         	call	i2_escreve_tela	;wreg free
  3591  000BF0                     
  3592                           ;xadrez_main.c: 77: escreve_tela("Jogador 1",1);
  3593  000BF0  0E0C               	movlw	low (STR_22+1)
  3594  000BF2  6E05               	movwf	i2escreve_tela@mensagem^0,c
  3595  000BF4  0E06               	movlw	high (STR_22+1)
  3596  000BF6  6E06               	movwf	(i2escreve_tela@mensagem+1)^0,c
  3597  000BF8  0E01               	movlw	1
  3598  000BFA  6E07               	movwf	i2escreve_tela@linha^0,c
  3599  000BFC  EC86  F00A         	call	i2_escreve_tela	;wreg free
  3600  000C00                     
  3601                           ;xadrez_main.c: 78: bipa();
  3602  000C00  ECE7  F009         	call	_bipa	;wreg free
  3603  000C04  00FF               	reset		;# 
  3604                           
  3605                           ;xadrez_main.c: 80: }else{
  3606  000C06  EF18  F006         	goto	i2l2390
  3607  000C0A                     i2l2382:
  3608                           
  3609                           ;xadrez_main.c: 81: if (seg2 == -1) {
  3610  000C0A  2868               	incf	_seg2^0,w,c
  3611  000C0C  E106               	bnz	i2u212_41
  3612  000C0E  2869               	incf	(_seg2+1)^0,w,c
  3613  000C10  A4D8               	btfss	status,2,c
  3614  000C12  EF0D  F006         	goto	i2u212_41
  3615  000C16  EF0F  F006         	goto	i2u212_40
  3616  000C1A                     i2u212_41:
  3617  000C1A  EF16  F006         	goto	i2l2388
  3618  000C1E                     i2u212_40:
  3619  000C1E                     
  3620                           ;xadrez_main.c: 82: seg2 = 59;
  3621  000C1E  0E00               	movlw	0
  3622  000C20  6E69               	movwf	(_seg2+1)^0,c
  3623  000C22  0E3B               	movlw	59
  3624  000C24  6E68               	movwf	_seg2^0,c
  3625  000C26                     
  3626                           ;xadrez_main.c: 83: min2--;
  3627  000C26  0664               	decf	_min2^0,f,c
  3628  000C28  A0D8               	btfss	status,0,c
  3629  000C2A  0665               	decf	(_min2+1)^0,f,c
  3630  000C2C                     i2l2388:
  3631                           
  3632                           ;xadrez_main.c: 84: };xadrez_main.c: 85: atualiza_tempo();
  3633  000C2C  EC68  F004         	call	_atualiza_tempo	;wreg free
  3634  000C30                     i2l2390:
  3635                           
  3636                           ;xadrez_main.c: 86: };xadrez_main.c: 87: };xadrez_main.c: 88: if (!player) {
  3637  000C30  B879               	btfsc	(_player/(0+8))^0,_player& (0+7),c
  3638  000C32  EF1D  F006         	goto	i2u213_41
  3639  000C36  EF1F  F006         	goto	i2u213_40
  3640  000C3A                     i2u213_41:
  3641  000C3A  EF80  F006         	goto	i2l2428
  3642  000C3E                     i2u213_40:
  3643  000C3E                     
  3644                           ;xadrez_main.c: 89: TMR0 = 15536;
  3645  000C3E  0E3C               	movlw	60
  3646  000C40  6ED7               	movwf	215,c	;volatile
  3647  000C42  0EB0               	movlw	176
  3648  000C44  6ED6               	movwf	214,c	;volatile
  3649  000C46                     
  3650                           ;xadrez_main.c: 90: mili1--;
  3651  000C46  0678               	decf	_mili1^0,f,c
  3652  000C48                     
  3653                           ;xadrez_main.c: 91: if(mili1 == 0){
  3654  000C48  5078               	movf	_mili1^0,w,c
  3655  000C4A  A4D8               	btfss	status,2,c
  3656  000C4C  EF2A  F006         	goto	i2u214_41
  3657  000C50  EF2C  F006         	goto	i2u214_40
  3658  000C54                     i2u214_41:
  3659  000C54  EF31  F006         	goto	i2l2402
  3660  000C58                     i2u214_40:
  3661  000C58                     
  3662                           ;xadrez_main.c: 92: seg1--;
  3663  000C58  066A               	decf	_seg1^0,f,c
  3664  000C5A  A0D8               	btfss	status,0,c
  3665  000C5C  066B               	decf	(_seg1+1)^0,f,c
  3666  000C5E                     
  3667                           ;xadrez_main.c: 93: mili1 = 10;
  3668  000C5E  0E0A               	movlw	10
  3669  000C60  6E78               	movwf	_mili1^0,c
  3670  000C62                     i2l2402:
  3671                           
  3672                           ;xadrez_main.c: 94: };xadrez_main.c: 95: if(min1 ==0 && seg1 == 0){
  3673  000C62  5066               	movf	_min1^0,w,c
  3674  000C64  1067               	iorwf	(_min1+1)^0,w,c
  3675  000C66  A4D8               	btfss	status,2,c
  3676  000C68  EF38  F006         	goto	i2u215_41
  3677  000C6C  EF3A  F006         	goto	i2u215_40
  3678  000C70                     i2u215_41:
  3679  000C70  EF6D  F006         	goto	i2l2420
  3680  000C74                     i2u215_40:
  3681  000C74  506A               	movf	_seg1^0,w,c
  3682  000C76  106B               	iorwf	(_seg1+1)^0,w,c
  3683  000C78  A4D8               	btfss	status,2,c
  3684  000C7A  EF41  F006         	goto	i2u216_41
  3685  000C7E  EF43  F006         	goto	i2u216_40
  3686  000C82                     i2u216_41:
  3687  000C82  EF6D  F006         	goto	i2l2420
  3688  000C86                     i2u216_40:
  3689  000C86                     
  3690                           ;xadrez_main.c: 96: T0CONbits.TMR0ON = 0;
  3691  000C86  9ED5               	bcf	213,7,c	;volatile
  3692  000C88                     
  3693                           ;xadrez_main.c: 97: atualiza_tempo();
  3694  000C88  EC68  F004         	call	_atualiza_tempo	;wreg free
  3695  000C8C                     
  3696                           ;xadrez_main.c: 98: _delay((unsigned long)((1000)*(16000000/4000.0)));
  3697  000C8C  0E15               	movlw	21
  3698  000C8E  6E4F               	movwf	(??_interrupcoes+1)^0,c
  3699  000C90  0E4B               	movlw	75
  3700  000C92  6E4E               	movwf	??_interrupcoes^0,c
  3701  000C94  0EBE               	movlw	190
  3702  000C96                     i2u236_47:
  3703  000C96  2EE8               	decfsz	wreg,f,c
  3704  000C98  D7FE               	bra	i2u236_47
  3705  000C9A  2E4E               	decfsz	??_interrupcoes^0,f,c
  3706  000C9C  D7FC               	bra	i2u236_47
  3707  000C9E  2E4F               	decfsz	(??_interrupcoes+1)^0,f,c
  3708  000CA0  D7FA               	bra	i2u236_47
  3709  000CA2  D000               	nop2	
  3710  000CA4                     
  3711                           ;xadrez_main.c: 99: LCD_PutCmd(0x01);
  3712  000CA4  0E00               	movlw	0
  3713  000CA6  6E04               	movwf	(i2LCD_PutCmd@c+1)^0,c
  3714  000CA8  0E01               	movlw	1
  3715  000CAA  6E03               	movwf	i2LCD_PutCmd@c^0,c
  3716  000CAC  EC3A  F00E         	call	i2_LCD_PutCmd	;wreg free
  3717  000CB0                     
  3718                           ;xadrez_main.c: 100: escreve_tela("Vencedor",0);
  3719  000CB0  0E21               	movlw	low STR_1
  3720  000CB2  6E05               	movwf	i2escreve_tela@mensagem^0,c
  3721  000CB4  0E06               	movlw	high STR_1
  3722  000CB6  6E06               	movwf	(i2escreve_tela@mensagem+1)^0,c
  3723  000CB8  0E00               	movlw	0
  3724  000CBA  6E07               	movwf	i2escreve_tela@linha^0,c
  3725  000CBC  EC86  F00A         	call	i2_escreve_tela	;wreg free
  3726  000CC0                     
  3727                           ;xadrez_main.c: 101: escreve_tela("Jogador 2",1);
  3728  000CC0  0E17               	movlw	low (STR_28+1)
  3729  000CC2  6E05               	movwf	i2escreve_tela@mensagem^0,c
  3730  000CC4  0E06               	movlw	high (STR_28+1)
  3731  000CC6  6E06               	movwf	(i2escreve_tela@mensagem+1)^0,c
  3732  000CC8  0E01               	movlw	1
  3733  000CCA  6E07               	movwf	i2escreve_tela@linha^0,c
  3734  000CCC  EC86  F00A         	call	i2_escreve_tela	;wreg free
  3735  000CD0                     
  3736                           ;xadrez_main.c: 102: bipa();
  3737  000CD0  ECE7  F009         	call	_bipa	;wreg free
  3738  000CD4  00FF               	reset		;# 
  3739                           
  3740                           ;xadrez_main.c: 104: }else{
  3741  000CD6  EF80  F006         	goto	i2l2428
  3742  000CDA                     i2l2420:
  3743                           
  3744                           ;xadrez_main.c: 105: if(seg1 == -1) {
  3745  000CDA  286A               	incf	_seg1^0,w,c
  3746  000CDC  E106               	bnz	i2u217_41
  3747  000CDE  286B               	incf	(_seg1+1)^0,w,c
  3748  000CE0  A4D8               	btfss	status,2,c
  3749  000CE2  EF75  F006         	goto	i2u217_41
  3750  000CE6  EF77  F006         	goto	i2u217_40
  3751  000CEA                     i2u217_41:
  3752  000CEA  EF7E  F006         	goto	i2l2426
  3753  000CEE                     i2u217_40:
  3754  000CEE                     
  3755                           ;xadrez_main.c: 106: seg1 = 59;
  3756  000CEE  0E00               	movlw	0
  3757  000CF0  6E6B               	movwf	(_seg1+1)^0,c
  3758  000CF2  0E3B               	movlw	59
  3759  000CF4  6E6A               	movwf	_seg1^0,c
  3760  000CF6                     
  3761                           ;xadrez_main.c: 107: min1--;
  3762  000CF6  0666               	decf	_min1^0,f,c
  3763  000CF8  A0D8               	btfss	status,0,c
  3764  000CFA  0667               	decf	(_min1+1)^0,f,c
  3765  000CFC                     i2l2426:
  3766                           
  3767                           ;xadrez_main.c: 108: };xadrez_main.c: 109: atualiza_tempo();
  3768  000CFC  EC68  F004         	call	_atualiza_tempo	;wreg free
  3769  000D00                     i2l2428:
  3770                           
  3771                           ;xadrez_main.c: 110: };xadrez_main.c: 111: };xadrez_main.c: 112: };xadrez_main.c: 113: i
      +                          f (INTCONbits.INT0F) {
  3772  000D00  A2F2               	btfss	242,1,c	;volatile
  3773  000D02  EF85  F006         	goto	i2u218_41
  3774  000D06  EF87  F006         	goto	i2u218_40
  3775  000D0A                     i2u218_41:
  3776  000D0A  EF89  F006         	goto	i2l2434
  3777  000D0E                     i2u218_40:
  3778  000D0E                     
  3779                           ;xadrez_main.c: 114: mainEventFlag |= 0x01L;
  3780  000D0E  8060               	bsf	_mainEventFlag^0,0,c	;volatile
  3781  000D10                     
  3782                           ;xadrez_main.c: 115: INTCONbits.INT0F = 0;
  3783  000D10  92F2               	bcf	242,1,c	;volatile
  3784  000D12                     i2l2434:
  3785                           
  3786                           ;xadrez_main.c: 116: };xadrez_main.c: 117: if (INTCON3bits.INT1F) {
  3787  000D12  A0F0               	btfss	240,0,c	;volatile
  3788  000D14  EF8E  F006         	goto	i2u219_41
  3789  000D18  EF90  F006         	goto	i2u219_40
  3790  000D1C                     i2u219_41:
  3791  000D1C  EF92  F006         	goto	i2l112
  3792  000D20                     i2u219_40:
  3793  000D20                     
  3794                           ;xadrez_main.c: 119: mainEventFlag |= 0x02L;
  3795  000D20  8260               	bsf	_mainEventFlag^0,1,c	;volatile
  3796  000D22                     
  3797                           ;xadrez_main.c: 120: INTCON3bits.INT1F = 0;
  3798  000D22  90F0               	bcf	240,0,c	;volatile
  3799  000D24                     i2l112:
  3800  000D24  C05B  FFF5         	movff	??_interrupcoes+13,tablat
  3801  000D28  C05A  FFF8         	movff	??_interrupcoes+12,tblptru
  3802  000D2C  C059  FFF7         	movff	??_interrupcoes+11,tblptrh
  3803  000D30  C058  FFF6         	movff	??_interrupcoes+10,tblptrl
  3804  000D34  C057  FFF4         	movff	??_interrupcoes+9,prodh
  3805  000D38  C056  FFF3         	movff	??_interrupcoes+8,prodl
  3806  000D3C  C055  FFDA         	movff	??_interrupcoes+7,fsr2h
  3807  000D40  C054  FFD9         	movff	??_interrupcoes+6,fsr2l
  3808  000D44  C053  FFE2         	movff	??_interrupcoes+5,fsr1h
  3809  000D48  C052  FFE1         	movff	??_interrupcoes+4,fsr1l
  3810  000D4C  C051  FFEA         	movff	??_interrupcoes+3,fsr0h
  3811  000D50  C050  FFE9         	movff	??_interrupcoes+2,fsr0l
  3812  000D54  927A               	bcf	int$flags,1,c	;clear compiler interrupt flag (level 2)
  3813  000D56  0011               	retfie		f
  3814  000D58                     __end_of_interrupcoes:
  3815                           	callstack 0
  3816                           
  3817 ;; *************** function i2_escreve_tela *****************
  3818 ;; Defined at:
  3819 ;;		line 229 in file "xadrez_main.c"
  3820 ;; Parameters:    Size  Location     Type
  3821 ;;  mensagem        2    4[COMRAM] PTR unsigned char 
  3822 ;;		 -> tela_placar@aux5(16), tela_placar@aux(16), STR_4(10), STR_3(9), 
  3823 ;;		 -> STR_2(10), STR_1(9), 
  3824 ;;  linha           1    6[COMRAM] unsigned char 
  3825 ;; Auto vars:     Size  Location     Type
  3826 ;;  i               1   10[COMRAM] unsigned char 
  3827 ;; Return value:  Size  Location     Type
  3828 ;;                  1    wreg      void 
  3829 ;; Registers used:
  3830 ;;		wreg, fsr0l, fsr0h, status,2, status,0, tblptrl, tblptrh, tblptru, cstack
  3831 ;; Tracked objects:
  3832 ;;		On entry : 0/0
  3833 ;;		On exit  : 0/0
  3834 ;;		Unchanged: 0/0
  3835 ;; Data sizes:     COMRAM   BANK0   BANK1   BANK2   BANK3   BANK4   BANK5
  3836 ;;      Params:         3       0       0       0       0       0       0
  3837 ;;      Locals:         1       0       0       0       0       0       0
  3838 ;;      Temps:          3       0       0       0       0       0       0
  3839 ;;      Totals:         7       0       0       0       0       0       0
  3840 ;;Total ram usage:        7 bytes
  3841 ;; Hardware stack levels used: 1
  3842 ;; Hardware stack levels required when called: 3
  3843 ;; This function calls:
  3844 ;;		i2_LCD_PutChar
  3845 ;;		i2_LCD_PutCmd
  3846 ;;		i2_strlen
  3847 ;; This function is called by:
  3848 ;;		_interrupcoes
  3849 ;; This function uses a non-reentrant model
  3850 ;;
  3851                           
  3852                           	psect	text21
  3853  00150C                     __ptext21:
  3854                           	callstack 0
  3855  00150C                     i2_escreve_tela:
  3856                           	callstack 21
  3857  00150C                     
  3858                           ;xadrez_main.c: 232: if(linha){
  3859  00150C  5007               	movf	i2escreve_tela@linha^0,w,c
  3860  00150E  B4D8               	btfsc	status,2,c
  3861  001510  EF8C  F00A         	goto	i2u204_41
  3862  001514  EF8E  F00A         	goto	i2u204_40
  3863  001518                     i2u204_41:
  3864  001518  EF94  F00A         	goto	i2l2342
  3865  00151C                     i2u204_40:
  3866  00151C                     
  3867                           ;xadrez_main.c: 233: LCD_PutCmd(0xC0);
  3868  00151C  0E00               	movlw	0
  3869  00151E  6E04               	movwf	(i2LCD_PutCmd@c+1)^0,c
  3870  001520  0EC0               	movlw	192
  3871  001522  6E03               	movwf	i2LCD_PutCmd@c^0,c
  3872  001524  EC3A  F00E         	call	i2_LCD_PutCmd	;wreg free
  3873  001528                     i2l2342:
  3874                           
  3875                           ;xadrez_main.c: 234: };xadrez_main.c: 235: for(i = 0;i<strlen(mensagem);i++){
  3876  001528  0E00               	movlw	0
  3877  00152A  6E0B               	movwf	i2escreve_tela@i^0,c
  3878  00152C  EFB5  F00A         	goto	i2l2348
  3879  001530                     i2l2344:
  3880                           
  3881                           ;xadrez_main.c: 236: LCD_PutChar(mensagem[i]);
  3882  001530  500B               	movf	i2escreve_tela@i^0,w,c
  3883  001532  2405               	addwf	i2escreve_tela@mensagem^0,w,c
  3884  001534  6E08               	movwf	??i2_escreve_tela^0,c
  3885  001536  0E00               	movlw	0
  3886  001538  2006               	addwfc	(i2escreve_tela@mensagem+1)^0,w,c
  3887  00153A  6E09               	movwf	(??i2_escreve_tela+1)^0,c
  3888  00153C  C008  FFF6         	movff	??i2_escreve_tela,tblptrl
  3889  001540  C009  FFF7         	movff	??i2_escreve_tela+1,tblptrh
  3890  001544  6AF8               	clrf	tblptru,c
  3891  001546  0E05               	movlw	(high __ramtop+-1)
  3892  001548  64F7               	cpfsgt	tblptrh,c
  3893  00154A  D003               	bra	i2u205_47
  3894  00154C  0008               	tblrd		*
  3895  00154E  50F5               	movf	tablat,w,c
  3896  001550  D005               	bra	i2u205_40
  3897  001552                     i2u205_47:
  3898  001552  CFF6 FFE9          	movff	tblptrl,fsr0l
  3899  001556  CFF7 FFEA          	movff	tblptrh,fsr0h
  3900  00155A  50EF               	movf	indf0,w,c
  3901  00155C                     i2u205_40:
  3902  00155C  6E0A               	movwf	(??i2_escreve_tela+2)^0,c
  3903  00155E  500A               	movf	(??i2_escreve_tela+2)^0,w,c
  3904  001560  6E03               	movwf	i2LCD_PutChar@c^0,c
  3905  001562  6A04               	clrf	(i2LCD_PutChar@c+1)^0,c
  3906  001564  EC16  F00E         	call	i2_LCD_PutChar	;wreg free
  3907  001568  2A0B               	incf	i2escreve_tela@i^0,f,c
  3908  00156A                     i2l2348:
  3909  00156A  C005  F001         	movff	i2escreve_tela@mensagem,i2strlen@s
  3910  00156E  C006  F002         	movff	i2escreve_tela@mensagem+1,i2strlen@s+1
  3911  001572  ECC5  F00D         	call	i2_strlen	;wreg free
  3912  001576  500B               	movf	i2escreve_tela@i^0,w,c
  3913  001578  6E08               	movwf	??i2_escreve_tela^0,c
  3914  00157A  6A09               	clrf	(??i2_escreve_tela+1)^0,c
  3915  00157C  5001               	movf	?i2_strlen^0,w,c
  3916  00157E  5C08               	subwf	??i2_escreve_tela^0,w,c
  3917  001580  5002               	movf	(?i2_strlen+1)^0,w,c
  3918  001582  5809               	subwfb	(??i2_escreve_tela+1)^0,w,c
  3919  001584  A0D8               	btfss	status,0,c
  3920  001586  EFC7  F00A         	goto	i2u206_41
  3921  00158A  EFC9  F00A         	goto	i2u206_40
  3922  00158E                     i2u206_41:
  3923  00158E  EF98  F00A         	goto	i2l2344
  3924  001592                     i2u206_40:
  3925  001592  0012               	return		;funcret
  3926  001594                     __end_ofi2_escreve_tela:
  3927                           	callstack 0
  3928                           
  3929 ;; *************** function i2_strlen *****************
  3930 ;; Defined at:
  3931 ;;		line 4 in file "D:\Program Files\Microchip\xc8\v2.36\pic\sources\c90\common\strlen.c"
  3932 ;; Parameters:    Size  Location     Type
  3933 ;;  s               2    0[COMRAM] PTR const unsigned char 
  3934 ;;		 -> tela_placar@aux5(16), tela_placar@aux(16), STR_4(10), STR_3(9), 
  3935 ;;		 -> STR_2(10), STR_1(9), 
  3936 ;; Auto vars:     Size  Location     Type
  3937 ;;  cp              2    2[COMRAM] PTR const unsigned char 
  3938 ;;		 -> tela_placar@aux5(16), tela_placar@aux(16), STR_4(10), STR_3(9), 
  3939 ;;		 -> STR_2(10), STR_1(9), 
  3940 ;; Return value:  Size  Location     Type
  3941 ;;                  2    0[COMRAM] unsigned int 
  3942 ;; Registers used:
  3943 ;;		wreg, fsr0l, fsr0h, status,2, status,0, tblptrl, tblptrh, tblptru
  3944 ;; Tracked objects:
  3945 ;;		On entry : 0/0
  3946 ;;		On exit  : 0/0
  3947 ;;		Unchanged: 0/0
  3948 ;; Data sizes:     COMRAM   BANK0   BANK1   BANK2   BANK3   BANK4   BANK5
  3949 ;;      Params:         2       0       0       0       0       0       0
  3950 ;;      Locals:         2       0       0       0       0       0       0
  3951 ;;      Temps:          0       0       0       0       0       0       0
  3952 ;;      Totals:         4       0       0       0       0       0       0
  3953 ;;Total ram usage:        4 bytes
  3954 ;; Hardware stack levels used: 1
  3955 ;; This function calls:
  3956 ;;		Nothing
  3957 ;; This function is called by:
  3958 ;;		i2_escreve_tela
  3959 ;; This function uses a non-reentrant model
  3960 ;;
  3961                           
  3962                           	psect	text22
  3963  001B8A                     __ptext22:
  3964                           	callstack 0
  3965  001B8A                     i2_strlen:
  3966                           	callstack 23
  3967  001B8A  C001  F003         	movff	i2strlen@s,i2strlen@cp
  3968  001B8E  C002  F004         	movff	i2strlen@s+1,i2strlen@cp+1
  3969  001B92  EFCD  F00D         	goto	i2l2134
  3970  001B96                     i2l2132:
  3971  001B96  4A03               	infsnz	i2strlen@cp^0,f,c
  3972  001B98  2A04               	incf	(i2strlen@cp+1)^0,f,c
  3973  001B9A                     i2l2134:
  3974  001B9A  C003  FFF6         	movff	i2strlen@cp,tblptrl
  3975  001B9E  C004  FFF7         	movff	i2strlen@cp+1,tblptrh
  3976  001BA2  6AF8               	clrf	tblptru,c
  3977  001BA4  0E05               	movlw	(high __ramtop+-1)
  3978  001BA6  64F7               	cpfsgt	tblptrh,c
  3979  001BA8  D003               	bra	i2u173_47
  3980  001BAA  0008               	tblrd		*
  3981  001BAC  50F5               	movf	tablat,w,c
  3982  001BAE  D005               	bra	i2u173_40
  3983  001BB0                     i2u173_47:
  3984  001BB0  CFF6 FFE9          	movff	tblptrl,fsr0l
  3985  001BB4  CFF7 FFEA          	movff	tblptrh,fsr0h
  3986  001BB8  50EF               	movf	indf0,w,c
  3987  001BBA                     i2u173_40:
  3988  001BBA  0900               	iorlw	0
  3989  001BBC  A4D8               	btfss	status,2,c
  3990  001BBE  EFE3  F00D         	goto	i2u174_41
  3991  001BC2  EFE5  F00D         	goto	i2u174_40
  3992  001BC6                     i2u174_41:
  3993  001BC6  EFCB  F00D         	goto	i2l2132
  3994  001BCA                     i2u174_40:
  3995  001BCA  5001               	movf	i2strlen@s^0,w,c
  3996  001BCC  5C03               	subwf	i2strlen@cp^0,w,c
  3997  001BCE  6E01               	movwf	?i2_strlen^0,c
  3998  001BD0  5002               	movf	(i2strlen@s+1)^0,w,c
  3999  001BD2  5804               	subwfb	(i2strlen@cp+1)^0,w,c
  4000  001BD4  6E02               	movwf	(?i2_strlen+1)^0,c
  4001  001BD6  0012               	return		;funcret
  4002  001BD8                     __end_ofi2_strlen:
  4003                           	callstack 0
  4004                           
  4005 ;; *************** function _bipa *****************
  4006 ;; Defined at:
  4007 ;;		line 124 in file "xadrez_main.c"
  4008 ;; Parameters:    Size  Location     Type
  4009 ;;		None
  4010 ;; Auto vars:     Size  Location     Type
  4011 ;;		None
  4012 ;; Return value:  Size  Location     Type
  4013 ;;                  1    wreg      void 
  4014 ;; Registers used:
  4015 ;;		wreg
  4016 ;; Tracked objects:
  4017 ;;		On entry : 0/0
  4018 ;;		On exit  : 0/0
  4019 ;;		Unchanged: 0/0
  4020 ;; Data sizes:     COMRAM   BANK0   BANK1   BANK2   BANK3   BANK4   BANK5
  4021 ;;      Params:         0       0       0       0       0       0       0
  4022 ;;      Locals:         0       0       0       0       0       0       0
  4023 ;;      Temps:          2       0       0       0       0       0       0
  4024 ;;      Totals:         2       0       0       0       0       0       0
  4025 ;;Total ram usage:        2 bytes
  4026 ;; Hardware stack levels used: 1
  4027 ;; This function calls:
  4028 ;;		Nothing
  4029 ;; This function is called by:
  4030 ;;		_interrupcoes
  4031 ;; This function uses a non-reentrant model
  4032 ;;
  4033                           
  4034                           	psect	text23
  4035  0013CE                     __ptext23:
  4036                           	callstack 0
  4037  0013CE                     _bipa:
  4038                           	callstack 24
  4039  0013CE                     
  4040                           ;xadrez_main.c: 125: PORTBbits.RB7 = 1;
  4041  0013CE  8E81               	bsf	129,7,c	;volatile
  4042  0013D0                     
  4043                           ;xadrez_main.c: 126: _delay((unsigned long)((500)*(16000000/4000.0)));
  4044  0013D0  0E0B               	movlw	11
  4045  0013D2  6E02               	movwf	(??_bipa+1)^0,c
  4046  0013D4  0E26               	movlw	38
  4047  0013D6  6E01               	movwf	??_bipa^0,c
  4048  0013D8  0E5E               	movlw	94
  4049  0013DA                     i2u237_47:
  4050  0013DA  2EE8               	decfsz	wreg,f,c
  4051  0013DC  D7FE               	bra	i2u237_47
  4052  0013DE  2E01               	decfsz	??_bipa^0,f,c
  4053  0013E0  D7FC               	bra	i2u237_47
  4054  0013E2  2E02               	decfsz	(??_bipa+1)^0,f,c
  4055  0013E4  D7FA               	bra	i2u237_47
  4056  0013E6                     
  4057                           ;xadrez_main.c: 127: PORTBbits.RB7 = 0;
  4058  0013E6  9E81               	bcf	129,7,c	;volatile
  4059                           
  4060                           ;xadrez_main.c: 128: _delay((unsigned long)((500)*(16000000/4000.0)));
  4061  0013E8  0E0B               	movlw	11
  4062  0013EA  6E02               	movwf	(??_bipa+1)^0,c
  4063  0013EC  0E26               	movlw	38
  4064  0013EE  6E01               	movwf	??_bipa^0,c
  4065  0013F0  0E5E               	movlw	94
  4066  0013F2                     i2u238_47:
  4067  0013F2  2EE8               	decfsz	wreg,f,c
  4068  0013F4  D7FE               	bra	i2u238_47
  4069  0013F6  2E01               	decfsz	??_bipa^0,f,c
  4070  0013F8  D7FC               	bra	i2u238_47
  4071  0013FA  2E02               	decfsz	(??_bipa+1)^0,f,c
  4072  0013FC  D7FA               	bra	i2u238_47
  4073  0013FE                     
  4074                           ;xadrez_main.c: 129: PORTBbits.RB7 = 1;
  4075  0013FE  8E81               	bsf	129,7,c	;volatile
  4076                           
  4077                           ;xadrez_main.c: 130: _delay((unsigned long)((500)*(16000000/4000.0)));
  4078  001400  0E0B               	movlw	11
  4079  001402  6E02               	movwf	(??_bipa+1)^0,c
  4080  001404  0E26               	movlw	38
  4081  001406  6E01               	movwf	??_bipa^0,c
  4082  001408  0E5E               	movlw	94
  4083  00140A                     i2u239_47:
  4084  00140A  2EE8               	decfsz	wreg,f,c
  4085  00140C  D7FE               	bra	i2u239_47
  4086  00140E  2E01               	decfsz	??_bipa^0,f,c
  4087  001410  D7FC               	bra	i2u239_47
  4088  001412  2E02               	decfsz	(??_bipa+1)^0,f,c
  4089  001414  D7FA               	bra	i2u239_47
  4090  001416                     
  4091                           ;xadrez_main.c: 131: PORTBbits.RB7 = 0;
  4092  001416  9E81               	bcf	129,7,c	;volatile
  4093                           
  4094                           ;xadrez_main.c: 132: _delay((unsigned long)((500)*(16000000/4000.0)));
  4095  001418  0E0B               	movlw	11
  4096  00141A  6E02               	movwf	(??_bipa+1)^0,c
  4097  00141C  0E26               	movlw	38
  4098  00141E  6E01               	movwf	??_bipa^0,c
  4099  001420  0E5E               	movlw	94
  4100  001422                     i2u240_47:
  4101  001422  2EE8               	decfsz	wreg,f,c
  4102  001424  D7FE               	bra	i2u240_47
  4103  001426  2E01               	decfsz	??_bipa^0,f,c
  4104  001428  D7FC               	bra	i2u240_47
  4105  00142A  2E02               	decfsz	(??_bipa+1)^0,f,c
  4106  00142C  D7FA               	bra	i2u240_47
  4107  00142E                     
  4108                           ;xadrez_main.c: 133: PORTBbits.RB7 = 1;
  4109  00142E  8E81               	bsf	129,7,c	;volatile
  4110                           
  4111                           ;xadrez_main.c: 134: _delay((unsigned long)((500)*(16000000/4000.0)));
  4112  001430  0E0B               	movlw	11
  4113  001432  6E02               	movwf	(??_bipa+1)^0,c
  4114  001434  0E26               	movlw	38
  4115  001436  6E01               	movwf	??_bipa^0,c
  4116  001438  0E5E               	movlw	94
  4117  00143A                     i2u241_47:
  4118  00143A  2EE8               	decfsz	wreg,f,c
  4119  00143C  D7FE               	bra	i2u241_47
  4120  00143E  2E01               	decfsz	??_bipa^0,f,c
  4121  001440  D7FC               	bra	i2u241_47
  4122  001442  2E02               	decfsz	(??_bipa+1)^0,f,c
  4123  001444  D7FA               	bra	i2u241_47
  4124  001446                     
  4125                           ;xadrez_main.c: 135: PORTBbits.RB7 = 0;
  4126  001446  9E81               	bcf	129,7,c	;volatile
  4127                           
  4128                           ;xadrez_main.c: 136: _delay((unsigned long)((500)*(16000000/4000.0)));
  4129  001448  0E0B               	movlw	11
  4130  00144A  6E02               	movwf	(??_bipa+1)^0,c
  4131  00144C  0E26               	movlw	38
  4132  00144E  6E01               	movwf	??_bipa^0,c
  4133  001450  0E5E               	movlw	94
  4134  001452                     i2u242_47:
  4135  001452  2EE8               	decfsz	wreg,f,c
  4136  001454  D7FE               	bra	i2u242_47
  4137  001456  2E01               	decfsz	??_bipa^0,f,c
  4138  001458  D7FC               	bra	i2u242_47
  4139  00145A  2E02               	decfsz	(??_bipa+1)^0,f,c
  4140  00145C  D7FA               	bra	i2u242_47
  4141  00145E                     
  4142                           ;xadrez_main.c: 137: PORTBbits.RB7 = 1;
  4143  00145E  8E81               	bsf	129,7,c	;volatile
  4144                           
  4145                           ;xadrez_main.c: 138: _delay((unsigned long)((500)*(16000000/4000.0)));
  4146  001460  0E0B               	movlw	11
  4147  001462  6E02               	movwf	(??_bipa+1)^0,c
  4148  001464  0E26               	movlw	38
  4149  001466  6E01               	movwf	??_bipa^0,c
  4150  001468  0E5E               	movlw	94
  4151  00146A                     i2u243_47:
  4152  00146A  2EE8               	decfsz	wreg,f,c
  4153  00146C  D7FE               	bra	i2u243_47
  4154  00146E  2E01               	decfsz	??_bipa^0,f,c
  4155  001470  D7FC               	bra	i2u243_47
  4156  001472  2E02               	decfsz	(??_bipa+1)^0,f,c
  4157  001474  D7FA               	bra	i2u243_47
  4158  001476                     
  4159                           ;xadrez_main.c: 139: PORTBbits.RB7 = 0;
  4160  001476  9E81               	bcf	129,7,c	;volatile
  4161  001478  0012               	return		;funcret
  4162  00147A                     __end_of_bipa:
  4163                           	callstack 0
  4164                           
  4165 ;; *************** function _atualiza_tempo *****************
  4166 ;; Defined at:
  4167 ;;		line 240 in file "xadrez_main.c"
  4168 ;; Parameters:    Size  Location     Type
  4169 ;;		None
  4170 ;; Auto vars:     Size  Location     Type
  4171 ;;  i               2   75[COMRAM] int 
  4172 ;;  aux2           16   59[COMRAM] unsigned char [16]
  4173 ;;  aux1           16   43[COMRAM] unsigned char [16]
  4174 ;;  aux            16   27[COMRAM] unsigned char [16]
  4175 ;; Return value:  Size  Location     Type
  4176 ;;                  1    wreg      void 
  4177 ;; Registers used:
  4178 ;;		wreg, fsr0l, fsr0h, fsr1l, fsr1h, fsr2l, fsr2h, status,2, status,0, tblptrl, tblptrh, tblptru, prodl, prodh, cstack
  4179 ;; Tracked objects:
  4180 ;;		On entry : 0/0
  4181 ;;		On exit  : 0/0
  4182 ;;		Unchanged: 0/0
  4183 ;; Data sizes:     COMRAM   BANK0   BANK1   BANK2   BANK3   BANK4   BANK5
  4184 ;;      Params:         0       0       0       0       0       0       0
  4185 ;;      Locals:        50       0       0       0       0       0       0
  4186 ;;      Temps:          1       0       0       0       0       0       0
  4187 ;;      Totals:        51       0       0       0       0       0       0
  4188 ;;Total ram usage:       51 bytes
  4189 ;; Hardware stack levels used: 1
  4190 ;; Hardware stack levels required when called: 3
  4191 ;; This function calls:
  4192 ;;		i2_LCD_PutChar
  4193 ;;		i2_LCD_PutCmd
  4194 ;;		i2_sprintf
  4195 ;;		i2_strcat
  4196 ;; This function is called by:
  4197 ;;		_interrupcoes
  4198 ;; This function uses a non-reentrant model
  4199 ;;
  4200                           
  4201                           	psect	text24
  4202  0008D0                     __ptext24:
  4203                           	callstack 0
  4204  0008D0                     _atualiza_tempo:
  4205                           	callstack 21
  4206  0008D0                     
  4207                           ;xadrez_main.c: 241: char aux[16]={0};
  4208  0008D0  EE21  F080         	lfsr	2,atualiza_tempo@F2606
  4209  0008D4  EE10  F01C         	lfsr	1,atualiza_tempo@aux
  4210  0008D8  0E0F               	movlw	15
  4211  0008DA                     i2u175_41:
  4212  0008DA  CFDB FFE3          	movff	plusw2,plusw1
  4213  0008DE  06E8               	decf	wreg,f,c
  4214  0008E0  E2FC               	bc	i2u175_41
  4215                           
  4216                           ;xadrez_main.c: 242: char aux1[16]={0};
  4217  0008E2  EE21  F070         	lfsr	2,atualiza_tempo@F2608
  4218  0008E6  EE10  F02C         	lfsr	1,atualiza_tempo@aux1
  4219  0008EA  0E0F               	movlw	15
  4220  0008EC                     i2u176_41:
  4221  0008EC  CFDB FFE3          	movff	plusw2,plusw1
  4222  0008F0  06E8               	decf	wreg,f,c
  4223  0008F2  E2FC               	bc	i2u176_41
  4224                           
  4225                           ;xadrez_main.c: 243: char aux2[16]={0};
  4226  0008F4  EE21  F060         	lfsr	2,atualiza_tempo@F2610
  4227  0008F8  EE10  F03C         	lfsr	1,atualiza_tempo@aux2
  4228  0008FC  0E0F               	movlw	15
  4229  0008FE                     i2u177_41:
  4230  0008FE  CFDB FFE3          	movff	plusw2,plusw1
  4231  000902  06E8               	decf	wreg,f,c
  4232  000904  E2FC               	bc	i2u177_41
  4233  000906                     
  4234                           ;xadrez_main.c: 245: if(!player){
  4235  000906  B879               	btfsc	(_player/(0+8))^0,_player& (0+7),c
  4236  000908  EF88  F004         	goto	i2u178_41
  4237  00090C  EF8A  F004         	goto	i2u178_40
  4238  000910                     i2u178_41:
  4239  000910  EFE4  F004         	goto	i2l2156
  4240  000914                     i2u178_40:
  4241  000914                     
  4242                           ;xadrez_main.c: 247: if(min1<10){
  4243  000914  BE67               	btfsc	(_min1+1)^0,7,c
  4244  000916  EF98  F004         	goto	i2u179_40
  4245  00091A  5067               	movf	(_min1+1)^0,w,c
  4246  00091C  E107               	bnz	i2u179_41
  4247  00091E  0E0A               	movlw	10
  4248  000920  5C66               	subwf	_min1^0,w,c
  4249  000922  B0D8               	btfsc	status,0,c
  4250  000924  EF96  F004         	goto	i2u179_41
  4251  000928  EF98  F004         	goto	i2u179_40
  4252  00092C                     i2u179_41:
  4253  00092C  EFA8  F004         	goto	i2l2148
  4254  000930                     i2u179_40:
  4255  000930                     
  4256                           ;xadrez_main.c: 248: sprintf(aux1, "0%d", min1);
  4257  000930  0E2C               	movlw	low atualiza_tempo@aux1
  4258  000932  6E0D               	movwf	i2sprintf@sp^0,c
  4259  000934  0E00               	movlw	high atualiza_tempo@aux1
  4260  000936  6E0E               	movwf	(i2sprintf@sp+1)^0,c
  4261  000938  0E2A               	movlw	low STR_5
  4262  00093A  6E0F               	movwf	i2sprintf@f^0,c
  4263  00093C  0E06               	movlw	high STR_5
  4264  00093E  6E10               	movwf	(i2sprintf@f+1)^0,c
  4265  000940  C066  F011         	movff	_min1,?i2_sprintf+4
  4266  000944  C067  F012         	movff	_min1+1,?i2_sprintf+5
  4267  000948  EC56  F008         	call	i2_sprintf	;wreg free
  4268                           
  4269                           ;xadrez_main.c: 249: }else{
  4270  00094C  EFB6  F004         	goto	i2l2150
  4271  000950                     i2l2148:
  4272                           
  4273                           ;xadrez_main.c: 250: sprintf(aux1, "%d", min1);
  4274  000950  0E2C               	movlw	low atualiza_tempo@aux1
  4275  000952  6E0D               	movwf	i2sprintf@sp^0,c
  4276  000954  0E00               	movlw	high atualiza_tempo@aux1
  4277  000956  6E0E               	movwf	(i2sprintf@sp+1)^0,c
  4278  000958  0E2B               	movlw	low (STR_5+1)
  4279  00095A  6E0F               	movwf	i2sprintf@f^0,c
  4280  00095C  0E06               	movlw	high (STR_5+1)
  4281  00095E  6E10               	movwf	(i2sprintf@f+1)^0,c
  4282  000960  C066  F011         	movff	_min1,?i2_sprintf+4
  4283  000964  C067  F012         	movff	_min1+1,?i2_sprintf+5
  4284  000968  EC56  F008         	call	i2_sprintf	;wreg free
  4285  00096C                     i2l2150:
  4286                           
  4287                           ;xadrez_main.c: 251: };xadrez_main.c: 252: if(seg1<10){
  4288  00096C  BE6B               	btfsc	(_seg1+1)^0,7,c
  4289  00096E  EFC4  F004         	goto	i2u180_40
  4290  000972  506B               	movf	(_seg1+1)^0,w,c
  4291  000974  E107               	bnz	i2u180_41
  4292  000976  0E0A               	movlw	10
  4293  000978  5C6A               	subwf	_seg1^0,w,c
  4294  00097A  B0D8               	btfsc	status,0,c
  4295  00097C  EFC2  F004         	goto	i2u180_41
  4296  000980  EFC4  F004         	goto	i2u180_40
  4297  000984                     i2u180_41:
  4298  000984  EFD4  F004         	goto	i2l2154
  4299  000988                     i2u180_40:
  4300  000988                     
  4301                           ;xadrez_main.c: 253: sprintf(aux2, "0%d", seg1);
  4302  000988  0E3C               	movlw	low atualiza_tempo@aux2
  4303  00098A  6E0D               	movwf	i2sprintf@sp^0,c
  4304  00098C  0E00               	movlw	high atualiza_tempo@aux2
  4305  00098E  6E0E               	movwf	(i2sprintf@sp+1)^0,c
  4306  000990  0E2A               	movlw	low STR_5
  4307  000992  6E0F               	movwf	i2sprintf@f^0,c
  4308  000994  0E06               	movlw	high STR_5
  4309  000996  6E10               	movwf	(i2sprintf@f+1)^0,c
  4310  000998  C06A  F011         	movff	_seg1,?i2_sprintf+4
  4311  00099C  C06B  F012         	movff	_seg1+1,?i2_sprintf+5
  4312  0009A0  EC56  F008         	call	i2_sprintf	;wreg free
  4313                           
  4314                           ;xadrez_main.c: 254: }else{
  4315  0009A4  EF3C  F005         	goto	i2l2168
  4316  0009A8                     i2l2154:
  4317                           
  4318                           ;xadrez_main.c: 255: sprintf(aux2, "%d", seg1);
  4319  0009A8  0E3C               	movlw	low atualiza_tempo@aux2
  4320  0009AA  6E0D               	movwf	i2sprintf@sp^0,c
  4321  0009AC  0E00               	movlw	high atualiza_tempo@aux2
  4322  0009AE  6E0E               	movwf	(i2sprintf@sp+1)^0,c
  4323  0009B0  0E2B               	movlw	low (STR_5+1)
  4324  0009B2  6E0F               	movwf	i2sprintf@f^0,c
  4325  0009B4  0E06               	movlw	high (STR_5+1)
  4326  0009B6  6E10               	movwf	(i2sprintf@f+1)^0,c
  4327  0009B8  C06A  F011         	movff	_seg1,?i2_sprintf+4
  4328  0009BC  C06B  F012         	movff	_seg1+1,?i2_sprintf+5
  4329  0009C0  EC56  F008         	call	i2_sprintf	;wreg free
  4330  0009C4  EF3C  F005         	goto	i2l2168
  4331  0009C8                     i2l2156:
  4332                           
  4333                           ;xadrez_main.c: 258: if(min2<10){
  4334  0009C8  BE65               	btfsc	(_min2+1)^0,7,c
  4335  0009CA  EFF2  F004         	goto	i2u181_40
  4336  0009CE  5065               	movf	(_min2+1)^0,w,c
  4337  0009D0  E107               	bnz	i2u181_41
  4338  0009D2  0E0A               	movlw	10
  4339  0009D4  5C64               	subwf	_min2^0,w,c
  4340  0009D6  B0D8               	btfsc	status,0,c
  4341  0009D8  EFF0  F004         	goto	i2u181_41
  4342  0009DC  EFF2  F004         	goto	i2u181_40
  4343  0009E0                     i2u181_41:
  4344  0009E0  EF02  F005         	goto	i2l2160
  4345  0009E4                     i2u181_40:
  4346  0009E4                     
  4347                           ;xadrez_main.c: 259: sprintf(aux1, "0%d", min2);
  4348  0009E4  0E2C               	movlw	low atualiza_tempo@aux1
  4349  0009E6  6E0D               	movwf	i2sprintf@sp^0,c
  4350  0009E8  0E00               	movlw	high atualiza_tempo@aux1
  4351  0009EA  6E0E               	movwf	(i2sprintf@sp+1)^0,c
  4352  0009EC  0E2A               	movlw	low STR_5
  4353  0009EE  6E0F               	movwf	i2sprintf@f^0,c
  4354  0009F0  0E06               	movlw	high STR_5
  4355  0009F2  6E10               	movwf	(i2sprintf@f+1)^0,c
  4356  0009F4  C064  F011         	movff	_min2,?i2_sprintf+4
  4357  0009F8  C065  F012         	movff	_min2+1,?i2_sprintf+5
  4358  0009FC  EC56  F008         	call	i2_sprintf	;wreg free
  4359                           
  4360                           ;xadrez_main.c: 260: }else{
  4361  000A00  EF10  F005         	goto	i2l2162
  4362  000A04                     i2l2160:
  4363                           
  4364                           ;xadrez_main.c: 261: sprintf(aux1, "%d", min2);
  4365  000A04  0E2C               	movlw	low atualiza_tempo@aux1
  4366  000A06  6E0D               	movwf	i2sprintf@sp^0,c
  4367  000A08  0E00               	movlw	high atualiza_tempo@aux1
  4368  000A0A  6E0E               	movwf	(i2sprintf@sp+1)^0,c
  4369  000A0C  0E2B               	movlw	low (STR_5+1)
  4370  000A0E  6E0F               	movwf	i2sprintf@f^0,c
  4371  000A10  0E06               	movlw	high (STR_5+1)
  4372  000A12  6E10               	movwf	(i2sprintf@f+1)^0,c
  4373  000A14  C064  F011         	movff	_min2,?i2_sprintf+4
  4374  000A18  C065  F012         	movff	_min2+1,?i2_sprintf+5
  4375  000A1C  EC56  F008         	call	i2_sprintf	;wreg free
  4376  000A20                     i2l2162:
  4377                           
  4378                           ;xadrez_main.c: 262: };xadrez_main.c: 263: if(seg2<10){
  4379  000A20  BE69               	btfsc	(_seg2+1)^0,7,c
  4380  000A22  EF1E  F005         	goto	i2u182_40
  4381  000A26  5069               	movf	(_seg2+1)^0,w,c
  4382  000A28  E107               	bnz	i2u182_41
  4383  000A2A  0E0A               	movlw	10
  4384  000A2C  5C68               	subwf	_seg2^0,w,c
  4385  000A2E  B0D8               	btfsc	status,0,c
  4386  000A30  EF1C  F005         	goto	i2u182_41
  4387  000A34  EF1E  F005         	goto	i2u182_40
  4388  000A38                     i2u182_41:
  4389  000A38  EF2E  F005         	goto	i2l2166
  4390  000A3C                     i2u182_40:
  4391  000A3C                     
  4392                           ;xadrez_main.c: 264: sprintf(aux2, "0%d", seg2);
  4393  000A3C  0E3C               	movlw	low atualiza_tempo@aux2
  4394  000A3E  6E0D               	movwf	i2sprintf@sp^0,c
  4395  000A40  0E00               	movlw	high atualiza_tempo@aux2
  4396  000A42  6E0E               	movwf	(i2sprintf@sp+1)^0,c
  4397  000A44  0E2A               	movlw	low STR_5
  4398  000A46  6E0F               	movwf	i2sprintf@f^0,c
  4399  000A48  0E06               	movlw	high STR_5
  4400  000A4A  6E10               	movwf	(i2sprintf@f+1)^0,c
  4401  000A4C  C068  F011         	movff	_seg2,?i2_sprintf+4
  4402  000A50  C069  F012         	movff	_seg2+1,?i2_sprintf+5
  4403  000A54  EC56  F008         	call	i2_sprintf	;wreg free
  4404                           
  4405                           ;xadrez_main.c: 265: }else{
  4406  000A58  EF3C  F005         	goto	i2l2168
  4407  000A5C                     i2l2166:
  4408                           
  4409                           ;xadrez_main.c: 266: sprintf(aux2, "%d", seg2);
  4410  000A5C  0E3C               	movlw	low atualiza_tempo@aux2
  4411  000A5E  6E0D               	movwf	i2sprintf@sp^0,c
  4412  000A60  0E00               	movlw	high atualiza_tempo@aux2
  4413  000A62  6E0E               	movwf	(i2sprintf@sp+1)^0,c
  4414  000A64  0E2B               	movlw	low (STR_5+1)
  4415  000A66  6E0F               	movwf	i2sprintf@f^0,c
  4416  000A68  0E06               	movlw	high (STR_5+1)
  4417  000A6A  6E10               	movwf	(i2sprintf@f+1)^0,c
  4418  000A6C  C068  F011         	movff	_seg2,?i2_sprintf+4
  4419  000A70  C069  F012         	movff	_seg2+1,?i2_sprintf+5
  4420  000A74  EC56  F008         	call	i2_sprintf	;wreg free
  4421  000A78                     i2l2168:
  4422                           
  4423                           ;xadrez_main.c: 267: };xadrez_main.c: 268: };xadrez_main.c: 269: strcat(aux,aux1);
  4424  000A78  0E1C               	movlw	low atualiza_tempo@aux
  4425  000A7A  6E01               	movwf	i2strcat@to^0,c
  4426  000A7C  0E00               	movlw	high atualiza_tempo@aux
  4427  000A7E  6E02               	movwf	(i2strcat@to+1)^0,c
  4428  000A80  0E2C               	movlw	low atualiza_tempo@aux1
  4429  000A82  6E03               	movwf	i2strcat@from^0,c
  4430  000A84  0E00               	movlw	high atualiza_tempo@aux1
  4431  000A86  6E04               	movwf	(i2strcat@from+1)^0,c
  4432  000A88  ECB3  F00B         	call	i2_strcat	;wreg free
  4433  000A8C                     
  4434                           ;xadrez_main.c: 270: strcat(aux,":");
  4435  000A8C  0E1C               	movlw	low atualiza_tempo@aux
  4436  000A8E  6E01               	movwf	i2strcat@to^0,c
  4437  000A90  0E00               	movlw	high atualiza_tempo@aux
  4438  000A92  6E02               	movwf	(i2strcat@to+1)^0,c
  4439  000A94  0E2E               	movlw	low STR_13
  4440  000A96  6E03               	movwf	i2strcat@from^0,c
  4441  000A98  0E06               	movlw	high STR_13
  4442  000A9A  6E04               	movwf	(i2strcat@from+1)^0,c
  4443  000A9C  ECB3  F00B         	call	i2_strcat	;wreg free
  4444  000AA0                     
  4445                           ;xadrez_main.c: 271: strcat(aux,aux2);
  4446  000AA0  0E1C               	movlw	low atualiza_tempo@aux
  4447  000AA2  6E01               	movwf	i2strcat@to^0,c
  4448  000AA4  0E00               	movlw	high atualiza_tempo@aux
  4449  000AA6  6E02               	movwf	(i2strcat@to+1)^0,c
  4450  000AA8  0E3C               	movlw	low atualiza_tempo@aux2
  4451  000AAA  6E03               	movwf	i2strcat@from^0,c
  4452  000AAC  0E00               	movlw	high atualiza_tempo@aux2
  4453  000AAE  6E04               	movwf	(i2strcat@from+1)^0,c
  4454  000AB0  ECB3  F00B         	call	i2_strcat	;wreg free
  4455  000AB4                     
  4456                           ;xadrez_main.c: 273: LCD_PutCmd(0x02);
  4457  000AB4  0E00               	movlw	0
  4458  000AB6  6E04               	movwf	(i2LCD_PutCmd@c+1)^0,c
  4459  000AB8  0E02               	movlw	2
  4460  000ABA  6E03               	movwf	i2LCD_PutCmd@c^0,c
  4461  000ABC  EC3A  F00E         	call	i2_LCD_PutCmd	;wreg free
  4462  000AC0                     
  4463                           ;xadrez_main.c: 275: if(player){
  4464  000AC0  A879               	btfss	(_player/(0+8))^0,_player& (0+7),c
  4465  000AC2  EF65  F005         	goto	i2u183_41
  4466  000AC6  EF67  F005         	goto	i2u183_40
  4467  000ACA                     i2u183_41:
  4468  000ACA  EF6D  F005         	goto	i2l2180
  4469  000ACE                     i2u183_40:
  4470  000ACE                     
  4471                           ;xadrez_main.c: 276: LCD_PutCmd(0xC0);
  4472  000ACE  0E00               	movlw	0
  4473  000AD0  6E04               	movwf	(i2LCD_PutCmd@c+1)^0,c
  4474  000AD2  0EC0               	movlw	192
  4475  000AD4  6E03               	movwf	i2LCD_PutCmd@c^0,c
  4476  000AD6  EC3A  F00E         	call	i2_LCD_PutCmd	;wreg free
  4477  000ADA                     i2l2180:
  4478                           
  4479                           ;xadrez_main.c: 277: };xadrez_main.c: 280: for(int i = 0;i<5;i++){
  4480  000ADA  0E00               	movlw	0
  4481  000ADC  6E4D               	movwf	(atualiza_tempo@i+1)^0,c
  4482  000ADE  0E00               	movlw	0
  4483  000AE0  6E4C               	movwf	atualiza_tempo@i^0,c
  4484  000AE2                     i2l2186:
  4485                           
  4486                           ;xadrez_main.c: 281: LCD_PutChar(aux[i]);
  4487  000AE2  0E1C               	movlw	low atualiza_tempo@aux
  4488  000AE4  244C               	addwf	atualiza_tempo@i^0,w,c
  4489  000AE6  6ED9               	movwf	fsr2l,c
  4490  000AE8  0E00               	movlw	high atualiza_tempo@aux
  4491  000AEA  204D               	addwfc	(atualiza_tempo@i+1)^0,w,c
  4492  000AEC  6EDA               	movwf	fsr2h,c
  4493  000AEE  50DF               	movf	indf2,w,c
  4494  000AF0  6E1B               	movwf	??_atualiza_tempo^0,c
  4495  000AF2  501B               	movf	??_atualiza_tempo^0,w,c
  4496  000AF4  6E03               	movwf	i2LCD_PutChar@c^0,c
  4497  000AF6  6A04               	clrf	(i2LCD_PutChar@c+1)^0,c
  4498  000AF8  EC16  F00E         	call	i2_LCD_PutChar	;wreg free
  4499  000AFC  4A4C               	infsnz	atualiza_tempo@i^0,f,c
  4500  000AFE  2A4D               	incf	(atualiza_tempo@i+1)^0,f,c
  4501  000B00  BE4D               	btfsc	(atualiza_tempo@i+1)^0,7,c
  4502  000B02  EF8C  F005         	goto	i2u184_41
  4503  000B06  504D               	movf	(atualiza_tempo@i+1)^0,w,c
  4504  000B08  E109               	bnz	i2u184_40
  4505  000B0A  0E05               	movlw	5
  4506  000B0C  5C4C               	subwf	atualiza_tempo@i^0,w,c
  4507  000B0E  A0D8               	btfss	status,0,c
  4508  000B10  EF8C  F005         	goto	i2u184_41
  4509  000B14  EF8E  F005         	goto	i2u184_40
  4510  000B18                     i2u184_41:
  4511  000B18  EF71  F005         	goto	i2l2186
  4512  000B1C                     i2u184_40:
  4513  000B1C  0012               	return		;funcret
  4514  000B1E                     __end_of_atualiza_tempo:
  4515                           	callstack 0
  4516                           
  4517 ;; *************** function i2_strcat *****************
  4518 ;; Defined at:
  4519 ;;		line 8 in file "D:\Program Files\Microchip\xc8\v2.36\pic\sources\c90\common\strcat.c"
  4520 ;; Parameters:    Size  Location     Type
  4521 ;;  to              2    0[COMRAM] PTR unsigned char 
  4522 ;;		 -> tela_placar@aux5(16), tela_placar@aux(16), atualiza_tempo@aux(16), 
  4523 ;;  from            2    2[COMRAM] PTR const unsigned char 
  4524 ;;		 -> STR_28(11), STR_27(2), STR_22(11), STR_21(2), 
  4525 ;;		 -> tela_placar@aux4(16), tela_placar@aux3(16), tela_placar@aux2(16), tela_placar@aux1(16), 
  4526 ;;		 -> STR_13(2), atualiza_tempo@aux2(16), atualiza_tempo@aux1(16), 
  4527 ;; Auto vars:     Size  Location     Type
  4528 ;;  cp              2    4[COMRAM] PTR unsigned char 
  4529 ;;		 -> tela_placar@aux5(16), tela_placar@aux(16), atualiza_tempo@aux(16), 
  4530 ;; Return value:  Size  Location     Type
  4531 ;;                  2    0[COMRAM] PTR unsigned char 
  4532 ;; Registers used:
  4533 ;;		wreg, fsr0l, fsr0h, fsr2l, fsr2h, status,2, status,0, tblptrl, tblptrh, tblptru
  4534 ;; Tracked objects:
  4535 ;;		On entry : 0/0
  4536 ;;		On exit  : 0/0
  4537 ;;		Unchanged: 0/0
  4538 ;; Data sizes:     COMRAM   BANK0   BANK1   BANK2   BANK3   BANK4   BANK5
  4539 ;;      Params:         4       0       0       0       0       0       0
  4540 ;;      Locals:         2       0       0       0       0       0       0
  4541 ;;      Temps:          0       0       0       0       0       0       0
  4542 ;;      Totals:         6       0       0       0       0       0       0
  4543 ;;Total ram usage:        6 bytes
  4544 ;; Hardware stack levels used: 1
  4545 ;; This function calls:
  4546 ;;		Nothing
  4547 ;; This function is called by:
  4548 ;;		_atualiza_tempo
  4549 ;; This function uses a non-reentrant model
  4550 ;;
  4551                           
  4552                           	psect	text25
  4553  001766                     __ptext25:
  4554                           	callstack 0
  4555  001766                     i2_strcat:
  4556                           	callstack 23
  4557  001766  C001  F005         	movff	i2strcat@to,i2strcat@cp
  4558  00176A  C002  F006         	movff	i2strcat@to+1,i2strcat@cp+1
  4559  00176E  EFBB  F00B         	goto	i2l2124
  4560  001772                     i2l2122:
  4561  001772  4A05               	infsnz	i2strcat@cp^0,f,c
  4562  001774  2A06               	incf	(i2strcat@cp+1)^0,f,c
  4563  001776                     i2l2124:
  4564  001776  C005  FFD9         	movff	i2strcat@cp,fsr2l
  4565  00177A  C006  FFDA         	movff	i2strcat@cp+1,fsr2h
  4566  00177E  50DF               	movf	indf2,w,c
  4567  001780  A4D8               	btfss	status,2,c
  4568  001782  EFC5  F00B         	goto	i2u170_41
  4569  001786  EFC7  F00B         	goto	i2u170_40
  4570  00178A                     i2u170_41:
  4571  00178A  EFB9  F00B         	goto	i2l2122
  4572  00178E                     i2u170_40:
  4573  00178E  EFCD  F00B         	goto	i2l2128
  4574  001792                     i2l2126:
  4575  001792  4A05               	infsnz	i2strcat@cp^0,f,c
  4576  001794  2A06               	incf	(i2strcat@cp+1)^0,f,c
  4577  001796  4A03               	infsnz	i2strcat@from^0,f,c
  4578  001798  2A04               	incf	(i2strcat@from+1)^0,f,c
  4579  00179A                     i2l2128:
  4580  00179A  C003  FFF6         	movff	i2strcat@from,tblptrl
  4581  00179E  C004  FFF7         	movff	i2strcat@from+1,tblptrh
  4582  0017A2  6AF8               	clrf	tblptru,c
  4583  0017A4  C005  FFD9         	movff	i2strcat@cp,fsr2l
  4584  0017A8  C006  FFDA         	movff	i2strcat@cp+1,fsr2h
  4585  0017AC  0E05               	movlw	(high __ramtop+-1)
  4586  0017AE  64F7               	cpfsgt	tblptrh,c
  4587  0017B0  D003               	bra	i2u171_47
  4588  0017B2  0008               	tblrd		*
  4589  0017B4  50F5               	movf	tablat,w,c
  4590  0017B6  D005               	bra	i2u171_40
  4591  0017B8                     i2u171_47:
  4592  0017B8  CFF6 FFE9          	movff	tblptrl,fsr0l
  4593  0017BC  CFF7 FFEA          	movff	tblptrh,fsr0h
  4594  0017C0  50EF               	movf	indf0,w,c
  4595  0017C2                     i2u171_40:
  4596  0017C2  6EDF               	movwf	indf2,c
  4597  0017C4  50DF               	movf	indf2,w,c
  4598  0017C6  A4D8               	btfss	status,2,c
  4599  0017C8  EFE8  F00B         	goto	i2u172_41
  4600  0017CC  EFEA  F00B         	goto	i2u172_40
  4601  0017D0                     i2u172_41:
  4602  0017D0  EFC9  F00B         	goto	i2l2126
  4603  0017D4                     i2u172_40:
  4604  0017D4  0012               	return		;funcret
  4605  0017D6                     __end_ofi2_strcat:
  4606                           	callstack 0
  4607                           
  4608 ;; *************** function i2_sprintf *****************
  4609 ;; Defined at:
  4610 ;;		line 505 in file "D:\Program Files\Microchip\xc8\v2.36\pic\sources\c90\common\doprnt.c"
  4611 ;; Parameters:    Size  Location     Type
  4612 ;;  sp              2   12[COMRAM] PTR unsigned char 
  4613 ;;		 -> tela_placar@aux4(16), tela_placar@aux3(16), tela_placar@aux2(16), tela_placar@aux1(16), 
  4614 ;;		 -> tela_configura@aux1(2), atualiza_tempo@aux2(16), atualiza_tempo@aux1(16), 
  4615 ;;  f               2   14[COMRAM] PTR const unsigned char 
  4616 ;;		 -> STR_26(3), STR_25(4), STR_24(3), STR_23(4), 
  4617 ;;		 -> STR_20(3), STR_19(4), STR_18(3), STR_17(4), 
  4618 ;;		 -> STR_15(3), STR_14(4), STR_12(3), STR_11(4), 
  4619 ;;		 -> STR_10(3), STR_9(4), STR_8(3), STR_7(4), 
  4620 ;;		 -> STR_6(3), STR_5(4), 
  4621 ;; Auto vars:     Size  Location     Type
  4622 ;;  tmpval          4    0        struct .
  4623 ;;  cp              3    0        PTR const unsigned char 
  4624 ;;  val             2   23[COMRAM] unsigned int 
  4625 ;;  ap              2   19[COMRAM] PTR void [1]
  4626 ;;		 -> ?i2_sprintf(2), ?_sprintf(2), 
  4627 ;;  len             2    0        unsigned int 
  4628 ;;  c               1   25[COMRAM] unsigned char 
  4629 ;;  prec            1   22[COMRAM] char 
  4630 ;;  flag            1   21[COMRAM] unsigned char 
  4631 ;; Return value:  Size  Location     Type
  4632 ;;                  2   12[COMRAM] int 
  4633 ;; Registers used:
  4634 ;;		wreg, fsr2l, fsr2h, status,2, status,0, tblptrl, tblptrh, tblptru, prodl, prodh, cstack
  4635 ;; Tracked objects:
  4636 ;;		On entry : 0/0
  4637 ;;		On exit  : 0/0
  4638 ;;		Unchanged: 0/0
  4639 ;; Data sizes:     COMRAM   BANK0   BANK1   BANK2   BANK3   BANK4   BANK5
  4640 ;;      Params:         6       0       0       0       0       0       0
  4641 ;;      Locals:         7       0       0       0       0       0       0
  4642 ;;      Temps:          1       0       0       0       0       0       0
  4643 ;;      Totals:        14       0       0       0       0       0       0
  4644 ;;Total ram usage:       14 bytes
  4645 ;; Hardware stack levels used: 1
  4646 ;; Hardware stack levels required when called: 1
  4647 ;; This function calls:
  4648 ;;		i2___lwdiv
  4649 ;;		i2___lwmod
  4650 ;; This function is called by:
  4651 ;;		_atualiza_tempo
  4652 ;; This function uses a non-reentrant model
  4653 ;;
  4654                           
  4655                           	psect	text26
  4656  0010AC                     __ptext26:
  4657                           	callstack 0
  4658  0010AC                     i2_sprintf:
  4659                           	callstack 22
  4660  0010AC                     
  4661                           ;doprnt.c: 507: va_list ap;;doprnt.c: 512: char c;;doprnt.c: 521: signed char prec;;dopr
      +                          nt.c: 525: unsigned char flag;;doprnt.c: 540: union {;doprnt.c: 541: unsigned long vd;;d
      +                          oprnt.c: 542: double integ;;doprnt.c: 543: } tmpval;;doprnt.c: 545: unsigned int val;;do
      +                          prnt.c: 546: unsigned len;;doprnt.c: 547: const char * cp;;doprnt.c: 550: *ap = __va_sta
      +                          rt();
  4662  0010AC  0E11               	movlw	low (?i2_sprintf+4)
  4663  0010AE  6E14               	movwf	i2sprintf@ap^0,c
  4664  0010B0  0E00               	movlw	high (?i2_sprintf+4)
  4665  0010B2  6E15               	movwf	(i2sprintf@ap+1)^0,c
  4666                           
  4667                           ;doprnt.c: 553: while((c = *f++)) {
  4668  0010B4  EF0E  F009         	goto	i2l2114
  4669  0010B8                     i2l2062:
  4670                           
  4671                           ;doprnt.c: 555: if(c != '%')
  4672  0010B8  0E25               	movlw	37
  4673  0010BA  181A               	xorwf	i2sprintf@c^0,w,c
  4674  0010BC  B4D8               	btfsc	status,2,c
  4675  0010BE  EF63  F008         	goto	i2u163_41
  4676  0010C2  EF65  F008         	goto	i2u163_40
  4677  0010C6                     i2u163_41:
  4678  0010C6  EF6F  F008         	goto	i2l2068
  4679  0010CA                     i2u163_40:
  4680  0010CA                     
  4681                           ;doprnt.c: 557: {;doprnt.c: 558: ((*sp++ = (c)));
  4682  0010CA  C00D  FFD9         	movff	i2sprintf@sp,fsr2l
  4683  0010CE  C00E  FFDA         	movff	i2sprintf@sp+1,fsr2h
  4684  0010D2  C01A  FFDF         	movff	i2sprintf@c,indf2
  4685  0010D6  4A0D               	infsnz	i2sprintf@sp^0,f,c
  4686  0010D8  2A0E               	incf	(i2sprintf@sp+1)^0,f,c
  4687                           
  4688                           ;doprnt.c: 559: continue;
  4689  0010DA  EF0E  F009         	goto	i2l2114
  4690  0010DE                     i2l2068:
  4691                           
  4692                           ;doprnt.c: 560: };doprnt.c: 565: flag = 0;
  4693  0010DE  0E00               	movlw	0
  4694  0010E0  6E16               	movwf	i2sprintf@flag^0,c
  4695  0010E2  C00F  FFF6         	movff	i2sprintf@f,tblptrl
  4696  0010E6  C010  FFF7         	movff	i2sprintf@f+1,tblptrh
  4697  0010EA  4A0F               	infsnz	i2sprintf@f^0,f,c
  4698  0010EC  2A10               	incf	(i2sprintf@f+1)^0,f,c
  4699  0010EE                     	if	0	;tblptru may be non-zero
  4700  0010EE                     	endif
  4701  0010EE                     	if	0	;tblptru may be non-zero
  4702  0010EE                     	endif
  4703  0010EE  0008               	tblrd		*
  4704  0010F0  CFF5 F01A          	movff	tablat,i2sprintf@c
  4705  0010F4  501A               	movf	i2sprintf@c^0,w,c
  4706                           
  4707                           ; Switch size 1, requested type "simple"
  4708                           ; Number of cases is 3, Range of values is 0 to 105
  4709                           ; switch strategies available:
  4710                           ; Name         Instructions Cycles
  4711                           ; simple_byte           10     6 (average)
  4712                           ;	Chosen strategy is simple_byte
  4713  0010F6  0A00               	xorlw	0	; case 0
  4714  0010F8  B4D8               	btfsc	status,2,c
  4715  0010FA  EF1F  F009         	goto	i2l2116
  4716  0010FE  0A64               	xorlw	100	; case 100
  4717  001100  B4D8               	btfsc	status,2,c
  4718  001102  EF89  F008         	goto	i2l2074
  4719  001106  0A0D               	xorlw	13	; case 105
  4720  001108  B4D8               	btfsc	status,2,c
  4721  00110A  EF89  F008         	goto	i2l2074
  4722  00110E  EF0E  F009         	goto	i2l2114
  4723  001112                     i2l2074:
  4724                           
  4725                           ;doprnt.c: 1279: {;doprnt.c: 1285: val = (unsigned int)(*(int *)__va_arg((*(int **)ap), 
      +                          (int)0));
  4726  001112  C014  FFD9         	movff	i2sprintf@ap,fsr2l
  4727  001116  C015  FFDA         	movff	i2sprintf@ap+1,fsr2h
  4728  00111A  CFDE F018          	movff	postinc2,i2sprintf@val
  4729  00111E  CFDD F019          	movff	postdec2,i2sprintf@val+1
  4730  001122  0E02               	movlw	2
  4731  001124  2614               	addwf	i2sprintf@ap^0,f,c
  4732  001126  0E00               	movlw	0
  4733  001128  2215               	addwfc	(i2sprintf@ap+1)^0,f,c
  4734  00112A                     
  4735                           ;doprnt.c: 1287: if((int)val < 0) {
  4736  00112A  BE19               	btfsc	(i2sprintf@val+1)^0,7,c
  4737  00112C  EF9C  F008         	goto	i2u164_40
  4738  001130  EF9A  F008         	goto	i2u164_41
  4739  001134                     i2u164_41:
  4740  001134  EFA2  F008         	goto	i2l2084
  4741  001138                     i2u164_40:
  4742  001138                     
  4743                           ;doprnt.c: 1288: flag |= 0x03;
  4744  001138  0E03               	movlw	3
  4745  00113A  1216               	iorwf	i2sprintf@flag^0,f,c
  4746  00113C                     
  4747                           ;doprnt.c: 1289: val = -val;
  4748  00113C  6C18               	negf	i2sprintf@val^0,c
  4749  00113E  1E19               	comf	(i2sprintf@val+1)^0,f,c
  4750  001140  B0D8               	btfsc	status,0,c
  4751  001142  2A19               	incf	(i2sprintf@val+1)^0,f,c
  4752  001144                     i2l2084:
  4753                           
  4754                           ;doprnt.c: 1290: };doprnt.c: 1292: };doprnt.c: 1331: for(c = 1 ; c != sizeof dpowers/siz
      +                          eof dpowers[0] ; c++)
  4755  001144  0E01               	movlw	1
  4756  001146  6E1A               	movwf	i2sprintf@c^0,c
  4757  001148                     i2l2090:
  4758                           
  4759                           ;doprnt.c: 1332: if(val < dpowers[c])
  4760  001148  501A               	movf	i2sprintf@c^0,w,c
  4761  00114A  0D02               	mullw	2
  4762  00114C  0E01               	movlw	low _dpowers
  4763  00114E  24F3               	addwf	243,w,c
  4764  001150  6EF6               	movwf	tblptrl,c
  4765  001152  0E06               	movlw	high _dpowers
  4766  001154  20F4               	addwfc	244,w,c
  4767  001156  6EF7               	movwf	tblptrh,c
  4768  001158                     	if	0	;There are less than 3 active tblptr bytes
  4769  001158                     	endif
  4770  001158  0009               	tblrd		*+
  4771  00115A  50F5               	movf	tablat,w,c
  4772  00115C  5C18               	subwf	i2sprintf@val^0,w,c
  4773  00115E  0009               	tblrd		*+
  4774  001160  50F5               	movf	tablat,w,c
  4775  001162  5819               	subwfb	(i2sprintf@val+1)^0,w,c
  4776  001164  B0D8               	btfsc	status,0,c
  4777  001166  EFB7  F008         	goto	i2u165_41
  4778  00116A  EFB9  F008         	goto	i2u165_40
  4779  00116E                     i2u165_41:
  4780  00116E  EFBB  F008         	goto	i2l2094
  4781  001172                     i2u165_40:
  4782  001172  EFC5  F008         	goto	i2l2098
  4783  001176                     i2l2094:
  4784  001176  2A1A               	incf	i2sprintf@c^0,f,c
  4785  001178  0E05               	movlw	5
  4786  00117A  181A               	xorwf	i2sprintf@c^0,w,c
  4787  00117C  A4D8               	btfss	status,2,c
  4788  00117E  EFC3  F008         	goto	i2u166_41
  4789  001182  EFC5  F008         	goto	i2u166_40
  4790  001186                     i2u166_41:
  4791  001186  EFA4  F008         	goto	i2l2090
  4792  00118A                     i2u166_40:
  4793  00118A                     i2l2098:
  4794                           
  4795                           ;doprnt.c: 1448: {;doprnt.c: 1464: if(flag & 0x03)
  4796  00118A  C016  F013         	movff	i2sprintf@flag,??i2_sprintf
  4797  00118E  0E03               	movlw	3
  4798  001190  1613               	andwf	??i2_sprintf^0,f,c
  4799  001192  B4D8               	btfsc	status,2,c
  4800  001194  EFCE  F008         	goto	i2u167_41
  4801  001198  EFD0  F008         	goto	i2u167_40
  4802  00119C                     i2u167_41:
  4803  00119C  EFD8  F008         	goto	i2l2104
  4804  0011A0                     i2u167_40:
  4805  0011A0                     
  4806                           ;doprnt.c: 1465: ((*sp++ = ('-')));
  4807  0011A0  C00D  FFD9         	movff	i2sprintf@sp,fsr2l
  4808  0011A4  C00E  FFDA         	movff	i2sprintf@sp+1,fsr2h
  4809  0011A8  0E2D               	movlw	45
  4810  0011AA  6EDF               	movwf	indf2,c
  4811  0011AC  4A0D               	infsnz	i2sprintf@sp^0,f,c
  4812  0011AE  2A0E               	incf	(i2sprintf@sp+1)^0,f,c
  4813  0011B0                     i2l2104:
  4814                           
  4815                           ;doprnt.c: 1495: };doprnt.c: 1498: prec = c;
  4816  0011B0  C01A  F017         	movff	i2sprintf@c,i2sprintf@prec
  4817                           
  4818                           ;doprnt.c: 1500: while(prec--) {
  4819  0011B4  EF05  F009         	goto	i2l2112
  4820  0011B8                     i2l2106:
  4821                           
  4822                           ;doprnt.c: 1504: {;doprnt.c: 1515: c = (val / dpowers[(unsigned char)prec]) % 10 + '0';
  4823  0011B8  5017               	movf	i2sprintf@prec^0,w,c
  4824  0011BA  0D02               	mullw	2
  4825  0011BC  0E01               	movlw	low _dpowers
  4826  0011BE  24F3               	addwf	243,w,c
  4827  0011C0  6EF6               	movwf	tblptrl,c
  4828  0011C2  0E06               	movlw	high _dpowers
  4829  0011C4  20F4               	addwfc	244,w,c
  4830  0011C6  6EF7               	movwf	tblptrh,c
  4831  0011C8                     	if	0	;There are less than 3 active tblptr bytes
  4832  0011C8                     	endif
  4833  0011C8  0009               	tblrd		*+
  4834  0011CA  CFF5 F003          	movff	tablat,i2___lwdiv@divisor
  4835  0011CE  000A               	tblrd		*-
  4836  0011D0  CFF5 F004          	movff	tablat,i2___lwdiv@divisor+1
  4837  0011D4  C018  F001         	movff	i2sprintf@val,i2___lwdiv@dividend
  4838  0011D8  C019  F002         	movff	i2sprintf@val+1,i2___lwdiv@dividend+1
  4839  0011DC  EC79  F00B         	call	i2___lwdiv	;wreg free
  4840  0011E0  C001  F008         	movff	?i2___lwdiv,i2___lwmod@dividend
  4841  0011E4  C002  F009         	movff	?i2___lwdiv+1,i2___lwmod@dividend+1
  4842  0011E8  0E00               	movlw	0
  4843  0011EA  6E0B               	movwf	(i2___lwmod@divisor+1)^0,c
  4844  0011EC  0E0A               	movlw	10
  4845  0011EE  6E0A               	movwf	i2___lwmod@divisor^0,c
  4846  0011F0  EC84  F00C         	call	i2___lwmod	;wreg free
  4847  0011F4  5008               	movf	?i2___lwmod^0,w,c
  4848  0011F6  0F30               	addlw	48
  4849  0011F8  6E1A               	movwf	i2sprintf@c^0,c
  4850  0011FA                     
  4851                           ;doprnt.c: 1549: };doprnt.c: 1550: ((*sp++ = (c)));
  4852  0011FA  C00D  FFD9         	movff	i2sprintf@sp,fsr2l
  4853  0011FE  C00E  FFDA         	movff	i2sprintf@sp+1,fsr2h
  4854  001202  C01A  FFDF         	movff	i2sprintf@c,indf2
  4855  001206  4A0D               	infsnz	i2sprintf@sp^0,f,c
  4856  001208  2A0E               	incf	(i2sprintf@sp+1)^0,f,c
  4857  00120A                     i2l2112:
  4858  00120A  0617               	decf	i2sprintf@prec^0,f,c
  4859  00120C  2817               	incf	i2sprintf@prec^0,w,c
  4860  00120E  A4D8               	btfss	status,2,c
  4861  001210  EF0C  F009         	goto	i2u168_41
  4862  001214  EF0E  F009         	goto	i2u168_40
  4863  001218                     i2u168_41:
  4864  001218  EFDC  F008         	goto	i2l2106
  4865  00121C                     i2u168_40:
  4866  00121C                     i2l2114:
  4867  00121C  C00F  FFF6         	movff	i2sprintf@f,tblptrl
  4868  001220  C010  FFF7         	movff	i2sprintf@f+1,tblptrh
  4869  001224  4A0F               	infsnz	i2sprintf@f^0,f,c
  4870  001226  2A10               	incf	(i2sprintf@f+1)^0,f,c
  4871  001228                     	if	0	;tblptru may be non-zero
  4872  001228                     	endif
  4873  001228                     	if	0	;tblptru may be non-zero
  4874  001228                     	endif
  4875  001228  0008               	tblrd		*
  4876  00122A  CFF5 F01A          	movff	tablat,i2sprintf@c
  4877  00122E  501A               	movf	i2sprintf@c^0,w,c
  4878  001230  A4D8               	btfss	status,2,c
  4879  001232  EF1D  F009         	goto	i2u169_41
  4880  001236  EF1F  F009         	goto	i2u169_40
  4881  00123A                     i2u169_41:
  4882  00123A  EF5C  F008         	goto	i2l2062
  4883  00123E                     i2u169_40:
  4884  00123E                     i2l2116:
  4885                           
  4886                           ;doprnt.c: 1564: *sp = 0;
  4887  00123E  C00D  FFD9         	movff	i2sprintf@sp,fsr2l
  4888  001242  C00E  FFDA         	movff	i2sprintf@sp+1,fsr2h
  4889  001246  0E00               	movlw	0
  4890  001248  6EDF               	movwf	indf2,c
  4891  00124A  0012               	return		;funcret
  4892  00124C                     __end_ofi2_sprintf:
  4893                           	callstack 0
  4894                           
  4895 ;; *************** function i2___lwmod *****************
  4896 ;; Defined at:
  4897 ;;		line 7 in file "D:\Program Files\Microchip\xc8\v2.36\pic\sources\c90\common\lwmod.c"
  4898 ;; Parameters:    Size  Location     Type
  4899 ;;  dividend        2    7[COMRAM] unsigned int 
  4900 ;;  divisor         2    9[COMRAM] unsigned int 
  4901 ;; Auto vars:     Size  Location     Type
  4902 ;;  counter         1   11[COMRAM] unsigned char 
  4903 ;; Return value:  Size  Location     Type
  4904 ;;                  2    7[COMRAM] unsigned int 
  4905 ;; Registers used:
  4906 ;;		wreg, status,2, status,0
  4907 ;; Tracked objects:
  4908 ;;		On entry : 0/0
  4909 ;;		On exit  : 0/0
  4910 ;;		Unchanged: 0/0
  4911 ;; Data sizes:     COMRAM   BANK0   BANK1   BANK2   BANK3   BANK4   BANK5
  4912 ;;      Params:         4       0       0       0       0       0       0
  4913 ;;      Locals:         1       0       0       0       0       0       0
  4914 ;;      Temps:          0       0       0       0       0       0       0
  4915 ;;      Totals:         5       0       0       0       0       0       0
  4916 ;;Total ram usage:        5 bytes
  4917 ;; Hardware stack levels used: 1
  4918 ;; This function calls:
  4919 ;;		Nothing
  4920 ;; This function is called by:
  4921 ;;		i2_sprintf
  4922 ;; This function uses a non-reentrant model
  4923 ;;
  4924                           
  4925                           	psect	text27
  4926  001908                     __ptext27:
  4927                           	callstack 0
  4928  001908                     i2___lwmod:
  4929                           	callstack 22
  4930  001908  500A               	movf	i2___lwmod@divisor^0,w,c
  4931  00190A  100B               	iorwf	(i2___lwmod@divisor+1)^0,w,c
  4932  00190C  B4D8               	btfsc	status,2,c
  4933  00190E  EF8B  F00C         	goto	i2u147_41
  4934  001912  EF8D  F00C         	goto	i2u147_40
  4935  001916                     i2u147_41:
  4936  001916  EFB1  F00C         	goto	i2l781
  4937  00191A                     i2u147_40:
  4938  00191A  0E01               	movlw	1
  4939  00191C  6E0C               	movwf	i2___lwmod@counter^0,c
  4940  00191E  EF95  F00C         	goto	i2l1952
  4941  001922                     i2l1950:
  4942  001922  90D8               	bcf	status,0,c
  4943  001924  360A               	rlcf	i2___lwmod@divisor^0,f,c
  4944  001926  360B               	rlcf	(i2___lwmod@divisor+1)^0,f,c
  4945  001928  2A0C               	incf	i2___lwmod@counter^0,f,c
  4946  00192A                     i2l1952:
  4947  00192A  AE0B               	btfss	(i2___lwmod@divisor+1)^0,7,c
  4948  00192C  EF9A  F00C         	goto	i2u148_41
  4949  001930  EF9C  F00C         	goto	i2u148_40
  4950  001934                     i2u148_41:
  4951  001934  EF91  F00C         	goto	i2l1950
  4952  001938                     i2u148_40:
  4953  001938                     i2l1954:
  4954  001938  500A               	movf	i2___lwmod@divisor^0,w,c
  4955  00193A  5C08               	subwf	i2___lwmod@dividend^0,w,c
  4956  00193C  500B               	movf	(i2___lwmod@divisor+1)^0,w,c
  4957  00193E  5809               	subwfb	(i2___lwmod@dividend+1)^0,w,c
  4958  001940  A0D8               	btfss	status,0,c
  4959  001942  EFA5  F00C         	goto	i2u149_41
  4960  001946  EFA7  F00C         	goto	i2u149_40
  4961  00194A                     i2u149_41:
  4962  00194A  EFAB  F00C         	goto	i2l1958
  4963  00194E                     i2u149_40:
  4964  00194E  500A               	movf	i2___lwmod@divisor^0,w,c
  4965  001950  5E08               	subwf	i2___lwmod@dividend^0,f,c
  4966  001952  500B               	movf	(i2___lwmod@divisor+1)^0,w,c
  4967  001954  5A09               	subwfb	(i2___lwmod@dividend+1)^0,f,c
  4968  001956                     i2l1958:
  4969  001956  90D8               	bcf	status,0,c
  4970  001958  320B               	rrcf	(i2___lwmod@divisor+1)^0,f,c
  4971  00195A  320A               	rrcf	i2___lwmod@divisor^0,f,c
  4972  00195C  2E0C               	decfsz	i2___lwmod@counter^0,f,c
  4973  00195E  EF9C  F00C         	goto	i2l1954
  4974  001962                     i2l781:
  4975  001962  C008  F008         	movff	i2___lwmod@dividend,?i2___lwmod
  4976  001966  C009  F009         	movff	i2___lwmod@dividend+1,?i2___lwmod+1
  4977  00196A  0012               	return		;funcret
  4978  00196C                     __end_ofi2___lwmod:
  4979                           	callstack 0
  4980                           
  4981 ;; *************** function i2___lwdiv *****************
  4982 ;; Defined at:
  4983 ;;		line 7 in file "D:\Program Files\Microchip\xc8\v2.36\pic\sources\c90\common\lwdiv.c"
  4984 ;; Parameters:    Size  Location     Type
  4985 ;;  dividend        2    0[COMRAM] unsigned int 
  4986 ;;  divisor         2    2[COMRAM] unsigned int 
  4987 ;; Auto vars:     Size  Location     Type
  4988 ;;  quotient        2    4[COMRAM] unsigned int 
  4989 ;;  counter         1    6[COMRAM] unsigned char 
  4990 ;; Return value:  Size  Location     Type
  4991 ;;                  2    0[COMRAM] unsigned int 
  4992 ;; Registers used:
  4993 ;;		wreg, status,2, status,0
  4994 ;; Tracked objects:
  4995 ;;		On entry : 0/0
  4996 ;;		On exit  : 0/0
  4997 ;;		Unchanged: 0/0
  4998 ;; Data sizes:     COMRAM   BANK0   BANK1   BANK2   BANK3   BANK4   BANK5
  4999 ;;      Params:         4       0       0       0       0       0       0
  5000 ;;      Locals:         3       0       0       0       0       0       0
  5001 ;;      Temps:          0       0       0       0       0       0       0
  5002 ;;      Totals:         7       0       0       0       0       0       0
  5003 ;;Total ram usage:        7 bytes
  5004 ;; Hardware stack levels used: 1
  5005 ;; This function calls:
  5006 ;;		Nothing
  5007 ;; This function is called by:
  5008 ;;		i2_sprintf
  5009 ;; This function uses a non-reentrant model
  5010 ;;
  5011                           
  5012                           	psect	text28
  5013  0016F2                     __ptext28:
  5014                           	callstack 0
  5015  0016F2                     i2___lwdiv:
  5016                           	callstack 22
  5017  0016F2  0E00               	movlw	0
  5018  0016F4  6E06               	movwf	(i2___lwdiv@quotient+1)^0,c
  5019  0016F6  0E00               	movlw	0
  5020  0016F8  6E05               	movwf	i2___lwdiv@quotient^0,c
  5021  0016FA  5003               	movf	i2___lwdiv@divisor^0,w,c
  5022  0016FC  1004               	iorwf	(i2___lwdiv@divisor+1)^0,w,c
  5023  0016FE  B4D8               	btfsc	status,2,c
  5024  001700  EF84  F00B         	goto	i2u144_41
  5025  001704  EF86  F00B         	goto	i2u144_40
  5026  001708                     i2u144_41:
  5027  001708  EFAE  F00B         	goto	i2l771
  5028  00170C                     i2u144_40:
  5029  00170C  0E01               	movlw	1
  5030  00170E  6E07               	movwf	i2___lwdiv@counter^0,c
  5031  001710  EF8E  F00B         	goto	i2l1932
  5032  001714                     i2l1930:
  5033  001714  90D8               	bcf	status,0,c
  5034  001716  3603               	rlcf	i2___lwdiv@divisor^0,f,c
  5035  001718  3604               	rlcf	(i2___lwdiv@divisor+1)^0,f,c
  5036  00171A  2A07               	incf	i2___lwdiv@counter^0,f,c
  5037  00171C                     i2l1932:
  5038  00171C  AE04               	btfss	(i2___lwdiv@divisor+1)^0,7,c
  5039  00171E  EF93  F00B         	goto	i2u145_41
  5040  001722  EF95  F00B         	goto	i2u145_40
  5041  001726                     i2u145_41:
  5042  001726  EF8A  F00B         	goto	i2l1930
  5043  00172A                     i2u145_40:
  5044  00172A                     i2l1934:
  5045  00172A  90D8               	bcf	status,0,c
  5046  00172C  3605               	rlcf	i2___lwdiv@quotient^0,f,c
  5047  00172E  3606               	rlcf	(i2___lwdiv@quotient+1)^0,f,c
  5048  001730  5003               	movf	i2___lwdiv@divisor^0,w,c
  5049  001732  5C01               	subwf	i2___lwdiv@dividend^0,w,c
  5050  001734  5004               	movf	(i2___lwdiv@divisor+1)^0,w,c
  5051  001736  5802               	subwfb	(i2___lwdiv@dividend+1)^0,w,c
  5052  001738  A0D8               	btfss	status,0,c
  5053  00173A  EFA1  F00B         	goto	i2u146_41
  5054  00173E  EFA3  F00B         	goto	i2u146_40
  5055  001742                     i2u146_41:
  5056  001742  EFA8  F00B         	goto	i2l1942
  5057  001746                     i2u146_40:
  5058  001746  5003               	movf	i2___lwdiv@divisor^0,w,c
  5059  001748  5E01               	subwf	i2___lwdiv@dividend^0,f,c
  5060  00174A  5004               	movf	(i2___lwdiv@divisor+1)^0,w,c
  5061  00174C  5A02               	subwfb	(i2___lwdiv@dividend+1)^0,f,c
  5062  00174E  8005               	bsf	i2___lwdiv@quotient^0,0,c
  5063  001750                     i2l1942:
  5064  001750  90D8               	bcf	status,0,c
  5065  001752  3204               	rrcf	(i2___lwdiv@divisor+1)^0,f,c
  5066  001754  3203               	rrcf	i2___lwdiv@divisor^0,f,c
  5067  001756  2E07               	decfsz	i2___lwdiv@counter^0,f,c
  5068  001758  EF95  F00B         	goto	i2l1934
  5069  00175C                     i2l771:
  5070  00175C  C005  F001         	movff	i2___lwdiv@quotient,?i2___lwdiv
  5071  001760  C006  F002         	movff	i2___lwdiv@quotient+1,?i2___lwdiv+1
  5072  001764  0012               	return		;funcret
  5073  001766                     __end_ofi2___lwdiv:
  5074                           	callstack 0
  5075                           
  5076 ;; *************** function i2_LCD_PutCmd *****************
  5077 ;; Defined at:
  5078 ;;		line 171 in file "xadrez_main.c"
  5079 ;; Parameters:    Size  Location     Type
  5080 ;;  c               2    2[COMRAM] unsigned int 
  5081 ;; Auto vars:     Size  Location     Type
  5082 ;;		None
  5083 ;; Return value:  Size  Location     Type
  5084 ;;                  1    wreg      void 
  5085 ;; Registers used:
  5086 ;;		wreg, status,2, status,0, cstack
  5087 ;; Tracked objects:
  5088 ;;		On entry : 0/0
  5089 ;;		On exit  : 0/0
  5090 ;;		Unchanged: 0/0
  5091 ;; Data sizes:     COMRAM   BANK0   BANK1   BANK2   BANK3   BANK4   BANK5
  5092 ;;      Params:         2       0       0       0       0       0       0
  5093 ;;      Locals:         0       0       0       0       0       0       0
  5094 ;;      Temps:          0       0       0       0       0       0       0
  5095 ;;      Totals:         2       0       0       0       0       0       0
  5096 ;;Total ram usage:        2 bytes
  5097 ;; Hardware stack levels used: 1
  5098 ;; Hardware stack levels required when called: 2
  5099 ;; This function calls:
  5100 ;;		i2_LCD_PulseEnable
  5101 ;;		i2_lower
  5102 ;;		i2_upper
  5103 ;; This function is called by:
  5104 ;;		_interrupcoes
  5105 ;;		_atualiza_tempo
  5106 ;;		i2_escreve_tela
  5107 ;; This function uses a non-reentrant model
  5108 ;;
  5109                           
  5110                           	psect	text29
  5111  001C74                     __ptext29:
  5112                           	callstack 0
  5113  001C74                     i2_LCD_PutCmd:
  5114                           	callstack 21
  5115  001C74                     
  5116                           ;xadrez_main.c: 172: upper(c);
  5117  001C74  C003  F001         	movff	i2LCD_PutCmd@c,i2upper@c
  5118  001C78  C004  F002         	movff	i2LCD_PutCmd@c+1,i2upper@c+1
  5119  001C7C  EC42  F00D         	call	i2_upper	;wreg free
  5120  001C80                     
  5121                           ;xadrez_main.c: 173: LCD_PulseEnable();
  5122  001C80  EC73  F00E         	call	i2_LCD_PulseEnable	;wreg free
  5123  001C84                     
  5124                           ;xadrez_main.c: 174: lower(c);
  5125  001C84  C003  F001         	movff	i2LCD_PutCmd@c,i2lower@c
  5126  001C88  C004  F002         	movff	i2LCD_PutCmd@c+1,i2lower@c+1
  5127  001C8C  EC6F  F00D         	call	i2_lower	;wreg free
  5128                           
  5129                           ;xadrez_main.c: 175: LCD_PulseEnable();
  5130  001C90  EC73  F00E         	call	i2_LCD_PulseEnable	;wreg free
  5131  001C94  0012               	return		;funcret
  5132  001C96                     __end_ofi2_LCD_PutCmd:
  5133                           	callstack 0
  5134                           
  5135 ;; *************** function i2_LCD_PutChar *****************
  5136 ;; Defined at:
  5137 ;;		line 213 in file "xadrez_main.c"
  5138 ;; Parameters:    Size  Location     Type
  5139 ;;  c               2    2[COMRAM] unsigned int 
  5140 ;; Auto vars:     Size  Location     Type
  5141 ;;		None
  5142 ;; Return value:  Size  Location     Type
  5143 ;;                  1    wreg      void 
  5144 ;; Registers used:
  5145 ;;		wreg, status,2, status,0, cstack
  5146 ;; Tracked objects:
  5147 ;;		On entry : 0/0
  5148 ;;		On exit  : 0/0
  5149 ;;		Unchanged: 0/0
  5150 ;; Data sizes:     COMRAM   BANK0   BANK1   BANK2   BANK3   BANK4   BANK5
  5151 ;;      Params:         2       0       0       0       0       0       0
  5152 ;;      Locals:         0       0       0       0       0       0       0
  5153 ;;      Temps:          0       0       0       0       0       0       0
  5154 ;;      Totals:         2       0       0       0       0       0       0
  5155 ;;Total ram usage:        2 bytes
  5156 ;; Hardware stack levels used: 1
  5157 ;; Hardware stack levels required when called: 2
  5158 ;; This function calls:
  5159 ;;		i2_LCD_PulseEnable
  5160 ;;		i2_lower
  5161 ;;		i2_upper
  5162 ;; This function is called by:
  5163 ;;		_atualiza_tempo
  5164 ;;		i2_escreve_tela
  5165 ;; This function uses a non-reentrant model
  5166 ;;
  5167                           
  5168                           	psect	text30
  5169  001C2C                     __ptext30:
  5170                           	callstack 0
  5171  001C2C                     i2_LCD_PutChar:
  5172                           	callstack 21
  5173  001C2C                     
  5174                           ;xadrez_main.c: 217: PORTDbits.RD5 = 1;
  5175  001C2C  8A83               	bsf	131,5,c	;volatile
  5176  001C2E                     
  5177                           ;xadrez_main.c: 218: upper(c);
  5178  001C2E  C003  F001         	movff	i2LCD_PutChar@c,i2upper@c
  5179  001C32  C004  F002         	movff	i2LCD_PutChar@c+1,i2upper@c+1
  5180  001C36  EC42  F00D         	call	i2_upper	;wreg free
  5181  001C3A                     
  5182                           ;xadrez_main.c: 219: LCD_PulseEnable();
  5183  001C3A  EC73  F00E         	call	i2_LCD_PulseEnable	;wreg free
  5184  001C3E                     
  5185                           ;xadrez_main.c: 220: lower(c);
  5186  001C3E  C003  F001         	movff	i2LCD_PutChar@c,i2lower@c
  5187  001C42  C004  F002         	movff	i2LCD_PutChar@c+1,i2lower@c+1
  5188  001C46  EC6F  F00D         	call	i2_lower	;wreg free
  5189                           
  5190                           ;xadrez_main.c: 221: LCD_PulseEnable();
  5191  001C4A  EC73  F00E         	call	i2_LCD_PulseEnable	;wreg free
  5192  001C4E                     
  5193                           ;xadrez_main.c: 222: PORTDbits.RD5 = 0;
  5194  001C4E  9A83               	bcf	131,5,c	;volatile
  5195  001C50  0012               	return		;funcret
  5196  001C52                     __end_ofi2_LCD_PutChar:
  5197                           	callstack 0
  5198                           
  5199 ;; *************** function i2_upper *****************
  5200 ;; Defined at:
  5201 ;;		line 190 in file "xadrez_main.c"
  5202 ;; Parameters:    Size  Location     Type
  5203 ;;  c               2    0[COMRAM] unsigned int 
  5204 ;; Auto vars:     Size  Location     Type
  5205 ;;		None
  5206 ;; Return value:  Size  Location     Type
  5207 ;;                  1    wreg      void 
  5208 ;; Registers used:
  5209 ;;		None
  5210 ;; Tracked objects:
  5211 ;;		On entry : 0/0
  5212 ;;		On exit  : 0/0
  5213 ;;		Unchanged: 0/0
  5214 ;; Data sizes:     COMRAM   BANK0   BANK1   BANK2   BANK3   BANK4   BANK5
  5215 ;;      Params:         2       0       0       0       0       0       0
  5216 ;;      Locals:         0       0       0       0       0       0       0
  5217 ;;      Temps:          0       0       0       0       0       0       0
  5218 ;;      Totals:         2       0       0       0       0       0       0
  5219 ;;Total ram usage:        2 bytes
  5220 ;; Hardware stack levels used: 1
  5221 ;; This function calls:
  5222 ;;		Nothing
  5223 ;; This function is called by:
  5224 ;;		i2_LCD_PutCmd
  5225 ;;		i2_LCD_PutChar
  5226 ;; This function uses a non-reentrant model
  5227 ;;
  5228                           
  5229                           	psect	text31
  5230  001A84                     __ptext31:
  5231                           	callstack 0
  5232  001A84                     i2_upper:
  5233                           	callstack 22
  5234  001A84                     
  5235                           ;xadrez_main.c: 191: if (c & 0x80) PORTDbits.RD3 = 1;
  5236  001A84  AE01               	btfss	i2upper@c^0,7,c
  5237  001A86  EF47  F00D         	goto	i2u136_41
  5238  001A8A  EF49  F00D         	goto	i2u136_40
  5239  001A8E                     i2u136_41:
  5240  001A8E  EF4C  F00D         	goto	i2l135
  5241  001A92                     i2u136_40:
  5242  001A92  8683               	bsf	131,3,c	;volatile
  5243  001A94  EF4D  F00D         	goto	i2l136
  5244  001A98                     i2l135:
  5245                           
  5246                           ;xadrez_main.c: 192: else PORTDbits.RD3 = 0;
  5247  001A98  9683               	bcf	131,3,c	;volatile
  5248  001A9A                     i2l136:
  5249                           
  5250                           ;xadrez_main.c: 193: if (c & 0x40) PORTDbits.RD2 = 1;
  5251  001A9A  AC01               	btfss	i2upper@c^0,6,c
  5252  001A9C  EF52  F00D         	goto	i2u137_41
  5253  001AA0  EF54  F00D         	goto	i2u137_40
  5254  001AA4                     i2u137_41:
  5255  001AA4  EF57  F00D         	goto	i2l137
  5256  001AA8                     i2u137_40:
  5257  001AA8  8483               	bsf	131,2,c	;volatile
  5258  001AAA  EF58  F00D         	goto	i2l138
  5259  001AAE                     i2l137:
  5260                           
  5261                           ;xadrez_main.c: 194: else;xadrez_main.c: 195: PORTDbits.RD2 = 0;
  5262  001AAE  9483               	bcf	131,2,c	;volatile
  5263  001AB0                     i2l138:
  5264                           
  5265                           ;xadrez_main.c: 196: if (c & 0x20) PORTDbits.RD1 = 1;
  5266  001AB0  AA01               	btfss	i2upper@c^0,5,c
  5267  001AB2  EF5D  F00D         	goto	i2u138_41
  5268  001AB6  EF5F  F00D         	goto	i2u138_40
  5269  001ABA                     i2u138_41:
  5270  001ABA  EF62  F00D         	goto	i2l139
  5271  001ABE                     i2u138_40:
  5272  001ABE  8283               	bsf	131,1,c	;volatile
  5273  001AC0  EF63  F00D         	goto	i2l140
  5274  001AC4                     i2l139:
  5275                           
  5276                           ;xadrez_main.c: 197: else PORTDbits.RD1 = 0;
  5277  001AC4  9283               	bcf	131,1,c	;volatile
  5278  001AC6                     i2l140:
  5279                           
  5280                           ;xadrez_main.c: 198: if (c & 0x10) PORTDbits.RD0 = 1;
  5281  001AC6  A801               	btfss	i2upper@c^0,4,c
  5282  001AC8  EF68  F00D         	goto	i2u139_41
  5283  001ACC  EF6A  F00D         	goto	i2u139_40
  5284  001AD0                     i2u139_41:
  5285  001AD0  EF6D  F00D         	goto	i2l141
  5286  001AD4                     i2u139_40:
  5287  001AD4  8083               	bsf	131,0,c	;volatile
  5288  001AD6  EF6E  F00D         	goto	i2l143
  5289  001ADA                     i2l141:
  5290                           
  5291                           ;xadrez_main.c: 199: else PORTDbits.RD0 = 0;
  5292  001ADA  9083               	bcf	131,0,c	;volatile
  5293  001ADC                     i2l143:
  5294  001ADC  0012               	return		;funcret
  5295  001ADE                     __end_ofi2_upper:
  5296                           	callstack 0
  5297                           
  5298 ;; *************** function i2_lower *****************
  5299 ;; Defined at:
  5300 ;;		line 202 in file "xadrez_main.c"
  5301 ;; Parameters:    Size  Location     Type
  5302 ;;  c               2    0[COMRAM] unsigned int 
  5303 ;; Auto vars:     Size  Location     Type
  5304 ;;		None
  5305 ;; Return value:  Size  Location     Type
  5306 ;;                  1    wreg      void 
  5307 ;; Registers used:
  5308 ;;		None
  5309 ;; Tracked objects:
  5310 ;;		On entry : 0/0
  5311 ;;		On exit  : 0/0
  5312 ;;		Unchanged: 0/0
  5313 ;; Data sizes:     COMRAM   BANK0   BANK1   BANK2   BANK3   BANK4   BANK5
  5314 ;;      Params:         2       0       0       0       0       0       0
  5315 ;;      Locals:         0       0       0       0       0       0       0
  5316 ;;      Temps:          0       0       0       0       0       0       0
  5317 ;;      Totals:         2       0       0       0       0       0       0
  5318 ;;Total ram usage:        2 bytes
  5319 ;; Hardware stack levels used: 1
  5320 ;; This function calls:
  5321 ;;		Nothing
  5322 ;; This function is called by:
  5323 ;;		i2_LCD_PutCmd
  5324 ;;		i2_LCD_PutChar
  5325 ;; This function uses a non-reentrant model
  5326 ;;
  5327                           
  5328                           	psect	text32
  5329  001ADE                     __ptext32:
  5330                           	callstack 0
  5331  001ADE                     i2_lower:
  5332                           	callstack 22
  5333  001ADE                     
  5334                           ;xadrez_main.c: 203: if (c & 0x08) PORTDbits.RD3 = 1;
  5335  001ADE  A601               	btfss	i2lower@c^0,3,c
  5336  001AE0  EF74  F00D         	goto	i2u140_41
  5337  001AE4  EF76  F00D         	goto	i2u140_40
  5338  001AE8                     i2u140_41:
  5339  001AE8  EF79  F00D         	goto	i2l146
  5340  001AEC                     i2u140_40:
  5341  001AEC  8683               	bsf	131,3,c	;volatile
  5342  001AEE  EF7A  F00D         	goto	i2l147
  5343  001AF2                     i2l146:
  5344                           
  5345                           ;xadrez_main.c: 204: else PORTDbits.RD3 = 0;
  5346  001AF2  9683               	bcf	131,3,c	;volatile
  5347  001AF4                     i2l147:
  5348                           
  5349                           ;xadrez_main.c: 205: if (c & 0x04) PORTDbits.RD2 = 1;
  5350  001AF4  A401               	btfss	i2lower@c^0,2,c
  5351  001AF6  EF7F  F00D         	goto	i2u141_41
  5352  001AFA  EF81  F00D         	goto	i2u141_40
  5353  001AFE                     i2u141_41:
  5354  001AFE  EF84  F00D         	goto	i2l148
  5355  001B02                     i2u141_40:
  5356  001B02  8483               	bsf	131,2,c	;volatile
  5357  001B04  EF85  F00D         	goto	i2l149
  5358  001B08                     i2l148:
  5359                           
  5360                           ;xadrez_main.c: 206: else PORTDbits.RD2 = 0;
  5361  001B08  9483               	bcf	131,2,c	;volatile
  5362  001B0A                     i2l149:
  5363                           
  5364                           ;xadrez_main.c: 207: if (c & 0x02) PORTDbits.RD1 = 1;
  5365  001B0A  A201               	btfss	i2lower@c^0,1,c
  5366  001B0C  EF8A  F00D         	goto	i2u142_41
  5367  001B10  EF8C  F00D         	goto	i2u142_40
  5368  001B14                     i2u142_41:
  5369  001B14  EF8F  F00D         	goto	i2l150
  5370  001B18                     i2u142_40:
  5371  001B18  8283               	bsf	131,1,c	;volatile
  5372  001B1A  EF90  F00D         	goto	i2l151
  5373  001B1E                     i2l150:
  5374                           
  5375                           ;xadrez_main.c: 208: else PORTDbits.RD1 = 0;
  5376  001B1E  9283               	bcf	131,1,c	;volatile
  5377  001B20                     i2l151:
  5378                           
  5379                           ;xadrez_main.c: 209: if (c & 0x01) PORTDbits.RD0 = 1;
  5380  001B20  A001               	btfss	i2lower@c^0,0,c
  5381  001B22  EF95  F00D         	goto	i2u143_41
  5382  001B26  EF97  F00D         	goto	i2u143_40
  5383  001B2A                     i2u143_41:
  5384  001B2A  EF9A  F00D         	goto	i2l152
  5385  001B2E                     i2u143_40:
  5386  001B2E  8083               	bsf	131,0,c	;volatile
  5387  001B30  EF9B  F00D         	goto	i2l154
  5388  001B34                     i2l152:
  5389                           
  5390                           ;xadrez_main.c: 210: else PORTDbits.RD0 = 0;
  5391  001B34  9083               	bcf	131,0,c	;volatile
  5392  001B36                     i2l154:
  5393  001B36  0012               	return		;funcret
  5394  001B38                     __end_ofi2_lower:
  5395                           	callstack 0
  5396                           
  5397 ;; *************** function i2_LCD_PulseEnable *****************
  5398 ;; Defined at:
  5399 ;;		line 178 in file "xadrez_main.c"
  5400 ;; Parameters:    Size  Location     Type
  5401 ;;		None
  5402 ;; Auto vars:     Size  Location     Type
  5403 ;;		None
  5404 ;; Return value:  Size  Location     Type
  5405 ;;                  1    wreg      void 
  5406 ;; Registers used:
  5407 ;;		wreg, status,2, status,0, cstack
  5408 ;; Tracked objects:
  5409 ;;		On entry : 0/0
  5410 ;;		On exit  : 0/0
  5411 ;;		Unchanged: 0/0
  5412 ;; Data sizes:     COMRAM   BANK0   BANK1   BANK2   BANK3   BANK4   BANK5
  5413 ;;      Params:         0       0       0       0       0       0       0
  5414 ;;      Locals:         0       0       0       0       0       0       0
  5415 ;;      Temps:          0       0       0       0       0       0       0
  5416 ;;      Totals:         0       0       0       0       0       0       0
  5417 ;;Total ram usage:        0 bytes
  5418 ;; Hardware stack levels used: 1
  5419 ;; Hardware stack levels required when called: 1
  5420 ;; This function calls:
  5421 ;;		i2_delay
  5422 ;; This function is called by:
  5423 ;;		i2_LCD_PutCmd
  5424 ;;		i2_LCD_PutChar
  5425 ;; This function uses a non-reentrant model
  5426 ;;
  5427                           
  5428                           	psect	text33
  5429  001CE6                     __ptext33:
  5430                           	callstack 0
  5431  001CE6                     i2_LCD_PulseEnable:
  5432                           	callstack 21
  5433  001CE6                     
  5434                           ;xadrez_main.c: 179: PORTDbits.RD4 = 1;
  5435  001CE6  8883               	bsf	131,4,c	;volatile
  5436  001CE8                     
  5437                           ;xadrez_main.c: 180: delay();
  5438  001CE8  EC51  F00C         	call	i2_delay	;wreg free
  5439  001CEC                     
  5440                           ;xadrez_main.c: 181: PORTDbits.RD4 = 0;
  5441  001CEC  9883               	bcf	131,4,c	;volatile
  5442                           
  5443                           ;xadrez_main.c: 182: delay();
  5444  001CEE  EC51  F00C         	call	i2_delay	;wreg free
  5445  001CF2  0012               	return		;funcret
  5446  001CF4                     __end_ofi2_LCD_PulseEnable:
  5447                           	callstack 0
  5448                           
  5449 ;; *************** function i2_delay *****************
  5450 ;; Defined at:
  5451 ;;		line 185 in file "xadrez_main.c"
  5452 ;; Parameters:    Size  Location     Type
  5453 ;;		None
  5454 ;; Auto vars:     Size  Location     Type
  5455 ;;		None
  5456 ;; Return value:  Size  Location     Type
  5457 ;;                  1    wreg      void 
  5458 ;; Registers used:
  5459 ;;		wreg, status,2, status,0
  5460 ;; Tracked objects:
  5461 ;;		On entry : 0/0
  5462 ;;		On exit  : 0/0
  5463 ;;		Unchanged: 0/0
  5464 ;; Data sizes:     COMRAM   BANK0   BANK1   BANK2   BANK3   BANK4   BANK5
  5465 ;;      Params:         0       0       0       0       0       0       0
  5466 ;;      Locals:         0       0       0       0       0       0       0
  5467 ;;      Temps:          0       0       0       0       0       0       0
  5468 ;;      Totals:         0       0       0       0       0       0       0
  5469 ;;Total ram usage:        0 bytes
  5470 ;; Hardware stack levels used: 1
  5471 ;; This function calls:
  5472 ;;		Nothing
  5473 ;; This function is called by:
  5474 ;;		i2_LCD_PulseEnable
  5475 ;; This function uses a non-reentrant model
  5476 ;;
  5477                           
  5478                           	psect	text34
  5479  0018A2                     __ptext34:
  5480                           	callstack 0
  5481  0018A2                     i2_delay:
  5482                           	callstack 21
  5483  0018A2                     
  5484                           ;xadrez_main.c: 186: for (count = 1; count < 500; count++){
  5485  0018A2  0E01               	movlw	1
  5486  0018A4  6E5C               	movwf	_count^0,c
  5487  0018A6  0E00               	movlw	0
  5488  0018A8  6E5D               	movwf	(_count+1)^0,c
  5489  0018AA  0E00               	movlw	0
  5490  0018AC  6E5E               	movwf	(_count+2)^0,c
  5491  0018AE  0E00               	movlw	0
  5492  0018B0  6E5F               	movwf	(_count+3)^0,c
  5493  0018B2  BE5F               	btfsc	(_count+3)^0,7,c
  5494  0018B4  EF68  F00C         	goto	i2u126_41
  5495  0018B8  505F               	movf	(_count+3)^0,w,c
  5496  0018BA  105E               	iorwf	(_count+2)^0,w,c
  5497  0018BC  E10B               	bnz	i2u126_40
  5498  0018BE  0EF4               	movlw	244
  5499  0018C0  5C5C               	subwf	_count^0,w,c
  5500  0018C2  0E01               	movlw	1
  5501  0018C4  585D               	subwfb	(_count+1)^0,w,c
  5502  0018C6  A0D8               	btfss	status,0,c
  5503  0018C8  EF68  F00C         	goto	i2u126_41
  5504  0018CC  EF6A  F00C         	goto	i2u126_40
  5505  0018D0                     i2u126_41:
  5506  0018D0  EF6C  F00C         	goto	i2l1832
  5507  0018D4                     i2u126_40:
  5508  0018D4  EF83  F00C         	goto	i2l132
  5509  0018D8                     i2l1832:
  5510  0018D8  0E01               	movlw	1
  5511  0018DA  265C               	addwf	_count^0,f,c
  5512  0018DC  0E00               	movlw	0
  5513  0018DE  225D               	addwfc	(_count+1)^0,f,c
  5514  0018E0  225E               	addwfc	(_count+2)^0,f,c
  5515  0018E2  225F               	addwfc	(_count+3)^0,f,c
  5516  0018E4  BE5F               	btfsc	(_count+3)^0,7,c
  5517  0018E6  EF81  F00C         	goto	i2u127_41
  5518  0018EA  505F               	movf	(_count+3)^0,w,c
  5519  0018EC  105E               	iorwf	(_count+2)^0,w,c
  5520  0018EE  E10B               	bnz	i2u127_40
  5521  0018F0  0EF4               	movlw	244
  5522  0018F2  5C5C               	subwf	_count^0,w,c
  5523  0018F4  0E01               	movlw	1
  5524  0018F6  585D               	subwfb	(_count+1)^0,w,c
  5525  0018F8  A0D8               	btfss	status,0,c
  5526  0018FA  EF81  F00C         	goto	i2u127_41
  5527  0018FE  EF83  F00C         	goto	i2u127_40
  5528  001902                     i2u127_41:
  5529  001902  EF6C  F00C         	goto	i2l1832
  5530  001906                     i2u127_40:
  5531  001906                     i2l132:
  5532  001906  0012               	return		;funcret
  5533  001908                     __end_ofi2_delay:
  5534                           	callstack 0
  5535                           
  5536                           	psect	rparam
  5537  0000                     
  5538                           	psect	temp
  5539  00007A                     btemp:
  5540                           	callstack 0
  5541  00007A                     	ds	1
  5542  0000                     int$flags	set	btemp
  5543  0000                     wtemp8	set	btemp+1
  5544  0000                     ttemp5	set	btemp+1
  5545  0000                     ttemp6	set	btemp+4
  5546  0000                     ttemp7	set	btemp+8
  5547                           
  5548                           	psect	idloc
  5549                           
  5550                           ;Config register IDLOC0 @ 0x200000
  5551                           ;	unspecified, using default values
  5552  200000                     	org	2097152
  5553  200000  FF                 	db	255
  5554                           
  5555                           ;Config register IDLOC1 @ 0x200001
  5556                           ;	unspecified, using default values
  5557  200001                     	org	2097153
  5558  200001  FF                 	db	255
  5559                           
  5560                           ;Config register IDLOC2 @ 0x200002
  5561                           ;	unspecified, using default values
  5562  200002                     	org	2097154
  5563  200002  FF                 	db	255
  5564                           
  5565                           ;Config register IDLOC3 @ 0x200003
  5566                           ;	unspecified, using default values
  5567  200003                     	org	2097155
  5568  200003  FF                 	db	255
  5569                           
  5570                           ;Config register IDLOC4 @ 0x200004
  5571                           ;	unspecified, using default values
  5572  200004                     	org	2097156
  5573  200004  FF                 	db	255
  5574                           
  5575                           ;Config register IDLOC5 @ 0x200005
  5576                           ;	unspecified, using default values
  5577  200005                     	org	2097157
  5578  200005  FF                 	db	255
  5579                           
  5580                           ;Config register IDLOC6 @ 0x200006
  5581                           ;	unspecified, using default values
  5582  200006                     	org	2097158
  5583  200006  FF                 	db	255
  5584                           
  5585                           ;Config register IDLOC7 @ 0x200007
  5586                           ;	unspecified, using default values
  5587  200007                     	org	2097159
  5588  200007  FF                 	db	255
  5589                           
  5590                           	psect	config
  5591                           
  5592                           ; Padding undefined space
  5593  300000                     	org	3145728
  5594  300000  FF                 	db	255
  5595                           
  5596                           ;Config register CONFIG1H @ 0x300001
  5597                           ;	unspecified, using default values
  5598                           ;	Oscillator Selection bits
  5599                           ;	OSC = 0x7, unprogrammed default
  5600                           ;	Fail-Safe Clock Monitor Enable bit
  5601                           ;	FCMEN = 0x0, unprogrammed default
  5602                           ;	Internal/External Oscillator Switchover bit
  5603                           ;	IESO = 0x0, unprogrammed default
  5604  300001                     	org	3145729
  5605  300001  07                 	db	7
  5606                           
  5607                           ;Config register CONFIG2L @ 0x300002
  5608                           ;	unspecified, using default values
  5609                           ;	Power-up Timer Enable bit
  5610                           ;	PWRT = 0x1, unprogrammed default
  5611                           ;	Brown-out Reset Enable bits
  5612                           ;	BOREN = 0x3, unprogrammed default
  5613                           ;	Brown Out Reset Voltage bits
  5614                           ;	BORV = 0x3, unprogrammed default
  5615  300002                     	org	3145730
  5616  300002  1F                 	db	31
  5617                           
  5618                           ;Config register CONFIG2H @ 0x300003
  5619                           ;	Watchdog Timer Enable bit
  5620                           ;	WDT = OFF, WDT disabled (control is placed on the SWDTEN bit)
  5621                           ;	Watchdog Timer Postscale Select bits
  5622                           ;	WDTPS = 0xF, unprogrammed default
  5623  300003                     	org	3145731
  5624  300003  1E                 	db	30
  5625                           
  5626                           ; Padding undefined space
  5627  300004                     	org	3145732
  5628  300004  FF                 	db	255
  5629                           
  5630                           ;Config register CONFIG3H @ 0x300005
  5631                           ;	unspecified, using default values
  5632                           ;	CCP2 MUX bit
  5633                           ;	CCP2MX = 0x1, unprogrammed default
  5634                           ;	PORTB A/D Enable bit
  5635                           ;	PBADEN = 0x1, unprogrammed default
  5636                           ;	Low-Power Timer1 Oscillator Enable bit
  5637                           ;	LPT1OSC = 0x0, unprogrammed default
  5638                           ;	MCLR Pin Enable bit
  5639                           ;	MCLRE = 0x1, unprogrammed default
  5640  300005                     	org	3145733
  5641  300005  83                 	db	131
  5642                           
  5643                           ;Config register CONFIG4L @ 0x300006
  5644                           ;	unspecified, using default values
  5645                           ;	Stack Full/Underflow Reset Enable bit
  5646                           ;	STVREN = 0x1, unprogrammed default
  5647                           ;	Single-Supply ICSP Enable bit
  5648                           ;	LVP = 0x1, unprogrammed default
  5649                           ;	Extended Instruction Set Enable bit
  5650                           ;	XINST = 0x0, unprogrammed default
  5651                           ;	Background Debugger Enable bit
  5652                           ;	DEBUG = 0x1, unprogrammed default
  5653  300006                     	org	3145734
  5654  300006  85                 	db	133
  5655                           
  5656                           ; Padding undefined space
  5657  300007                     	org	3145735
  5658  300007  FF                 	db	255
  5659                           
  5660                           ;Config register CONFIG5L @ 0x300008
  5661                           ;	unspecified, using default values
  5662                           ;	Code Protection bit
  5663                           ;	CP0 = 0x1, unprogrammed default
  5664                           ;	Code Protection bit
  5665                           ;	CP1 = 0x1, unprogrammed default
  5666                           ;	Code Protection bit
  5667                           ;	CP2 = 0x1, unprogrammed default
  5668                           ;	Code Protection bit
  5669                           ;	CP3 = 0x1, unprogrammed default
  5670  300008                     	org	3145736
  5671  300008  0F                 	db	15
  5672                           
  5673                           ;Config register CONFIG5H @ 0x300009
  5674                           ;	unspecified, using default values
  5675                           ;	Boot Block Code Protection bit
  5676                           ;	CPB = 0x1, unprogrammed default
  5677                           ;	Data EEPROM Code Protection bit
  5678                           ;	CPD = 0x1, unprogrammed default
  5679  300009                     	org	3145737
  5680  300009  C0                 	db	192
  5681                           
  5682                           ;Config register CONFIG6L @ 0x30000A
  5683                           ;	unspecified, using default values
  5684                           ;	Write Protection bit
  5685                           ;	WRT0 = 0x1, unprogrammed default
  5686                           ;	Write Protection bit
  5687                           ;	WRT1 = 0x1, unprogrammed default
  5688                           ;	Write Protection bit
  5689                           ;	WRT2 = 0x1, unprogrammed default
  5690                           ;	Write Protection bit
  5691                           ;	WRT3 = 0x1, unprogrammed default
  5692  30000A                     	org	3145738
  5693  30000A  0F                 	db	15
  5694                           
  5695                           ;Config register CONFIG6H @ 0x30000B
  5696                           ;	unspecified, using default values
  5697                           ;	Configuration Register Write Protection bit
  5698                           ;	WRTC = 0x1, unprogrammed default
  5699                           ;	Boot Block Write Protection bit
  5700                           ;	WRTB = 0x1, unprogrammed default
  5701                           ;	Data EEPROM Write Protection bit
  5702                           ;	WRTD = 0x1, unprogrammed default
  5703  30000B                     	org	3145739
  5704  30000B  E0                 	db	224
  5705                           
  5706                           ;Config register CONFIG7L @ 0x30000C
  5707                           ;	unspecified, using default values
  5708                           ;	Table Read Protection bit
  5709                           ;	EBTR0 = 0x1, unprogrammed default
  5710                           ;	Table Read Protection bit
  5711                           ;	EBTR1 = 0x1, unprogrammed default
  5712                           ;	Table Read Protection bit
  5713                           ;	EBTR2 = 0x1, unprogrammed default
  5714                           ;	Table Read Protection bit
  5715                           ;	EBTR3 = 0x1, unprogrammed default
  5716  30000C                     	org	3145740
  5717  30000C  0F                 	db	15
  5718                           
  5719                           ;Config register CONFIG7H @ 0x30000D
  5720                           ;	unspecified, using default values
  5721                           ;	Boot Block Table Read Protection bit
  5722                           ;	EBTRB = 0x1, unprogrammed default
  5723  30000D                     	org	3145741
  5724  30000D  40                 	db	64
  5725                           tosu	equ	0xFFF
  5726                           tosh	equ	0xFFE
  5727                           tosl	equ	0xFFD
  5728                           stkptr	equ	0xFFC
  5729                           pclatu	equ	0xFFB
  5730                           pclath	equ	0xFFA
  5731                           pcl	equ	0xFF9
  5732                           tblptru	equ	0xFF8
  5733                           tblptrh	equ	0xFF7
  5734                           tblptrl	equ	0xFF6
  5735                           tablat	equ	0xFF5
  5736                           prodh	equ	0xFF4
  5737                           prodl	equ	0xFF3
  5738                           indf0	equ	0xFEF
  5739                           postinc0	equ	0xFEE
  5740                           postdec0	equ	0xFED
  5741                           preinc0	equ	0xFEC
  5742                           plusw0	equ	0xFEB
  5743                           fsr0h	equ	0xFEA
  5744                           fsr0l	equ	0xFE9
  5745                           wreg	equ	0xFE8
  5746                           indf1	equ	0xFE7
  5747                           postinc1	equ	0xFE6
  5748                           postdec1	equ	0xFE5
  5749                           preinc1	equ	0xFE4
  5750                           plusw1	equ	0xFE3
  5751                           fsr1h	equ	0xFE2
  5752                           fsr1l	equ	0xFE1
  5753                           bsr	equ	0xFE0
  5754                           indf2	equ	0xFDF
  5755                           postinc2	equ	0xFDE
  5756                           postdec2	equ	0xFDD
  5757                           preinc2	equ	0xFDC
  5758                           plusw2	equ	0xFDB
  5759                           fsr2h	equ	0xFDA
  5760                           fsr2l	equ	0xFD9
  5761                           status	equ	0xFD8

Data Sizes:
    Strings     39
    Constant    10
    Data        14
    BSS         161
    Persistent  1
    Stack       0

Auto Spaces:
    Space          Size  Autos    Used
    COMRAM          126     91     121
    BANK0           128    124     127
    BANK1           256      0     144
    BANK2           256      0       0
    BANK3           256      0       0
    BANK4           256      0       0
    BANK5           256      0       0

Pointer List with Targets:

    strlen@s	PTR const unsigned char  size(2) Largest target is 16
		 -> tela_placar@aux5(BANK0[16]), tela_placar@aux(BANK0[16]), STR_4(CODE[10]), STR_3(CODE[9]), 
		 -> STR_2(CODE[10]), STR_1(CODE[9]), 

    strlen@cp	PTR const unsigned char  size(2) Largest target is 16
		 -> tela_placar@aux5(BANK0[16]), tela_placar@aux(BANK0[16]), STR_4(CODE[10]), STR_3(CODE[9]), 
		 -> STR_2(CODE[10]), STR_1(CODE[9]), 

    strcat@from	PTR const unsigned char  size(2) Largest target is 16
		 -> STR_28(CODE[11]), STR_27(CODE[2]), STR_22(CODE[11]), STR_21(CODE[2]), 
		 -> tela_placar@aux4(BANK0[16]), tela_placar@aux3(BANK0[16]), tela_placar@aux2(BANK0[16]), tela_placar@aux1(BANK0[16]), 
		 -> STR_13(CODE[2]), atualiza_tempo@aux2(COMRAM[16]), atualiza_tempo@aux1(COMRAM[16]), 

    strcat@to	PTR unsigned char  size(2) Largest target is 16
		 -> tela_placar@aux5(BANK0[16]), tela_placar@aux(BANK0[16]), atualiza_tempo@aux(COMRAM[16]), 

    strcat@cp	PTR unsigned char  size(2) Largest target is 16
		 -> tela_placar@aux5(BANK0[16]), tela_placar@aux(BANK0[16]), atualiza_tempo@aux(COMRAM[16]), 

    sprintf@f	PTR const unsigned char  size(2) Largest target is 4
		 -> STR_26(CODE[3]), STR_25(CODE[4]), STR_24(CODE[3]), STR_23(CODE[4]), 
		 -> STR_20(CODE[3]), STR_19(CODE[4]), STR_18(CODE[3]), STR_17(CODE[4]), 
		 -> STR_15(CODE[3]), STR_14(CODE[4]), STR_12(CODE[3]), STR_11(CODE[4]), 
		 -> STR_10(CODE[3]), STR_9(CODE[4]), STR_8(CODE[3]), STR_7(CODE[4]), 
		 -> STR_6(CODE[3]), STR_5(CODE[4]), 

    sprintf@sp	PTR unsigned char  size(2) Largest target is 16
		 -> tela_placar@aux4(BANK0[16]), tela_placar@aux3(BANK0[16]), tela_placar@aux2(BANK0[16]), tela_placar@aux1(BANK0[16]), 
		 -> tela_configura@aux1(BANK0[2]), atualiza_tempo@aux2(COMRAM[16]), atualiza_tempo@aux1(COMRAM[16]), 

    sprintf@ap	PTR void [1] size(2) Largest target is 2
		 -> ?_sprintf(BANK0[2]), 

    sp__strcat	PTR unsigned char  size(2) Largest target is 16
		 -> tela_placar@aux5(BANK0[16]), tela_placar@aux(BANK0[16]), atualiza_tempo@aux(COMRAM[16]), 

    escreve_tela@mensagem	PTR unsigned char  size(2) Largest target is 16
		 -> tela_placar@aux5(BANK0[16]), tela_placar@aux(BANK0[16]), STR_4(CODE[10]), STR_3(CODE[9]), 
		 -> STR_2(CODE[10]), STR_1(CODE[9]), 


Critical Paths under _main in COMRAM

    None.

Critical Paths under _interrupcoes in COMRAM

    _interrupcoes->_atualiza_tempo
    i2_escreve_tela->i2_LCD_PutChar
    i2_escreve_tela->i2_LCD_PutCmd
    i2_escreve_tela->i2_strlen
    _atualiza_tempo->i2_sprintf
    i2_sprintf->i2___lwmod
    i2___lwmod->i2___lwdiv
    i2_LCD_PutCmd->i2_lower
    i2_LCD_PutCmd->i2_upper
    i2_LCD_PutChar->i2_lower
    i2_LCD_PutChar->i2_upper

Critical Paths under _main in BANK0

    _main->_tela_placar
    _tela_placar->_sprintf
    _escreve_tela->_LCD_PutChar
    _escreve_tela->_LCD_PutCmd
    _escreve_tela->_strlen
    _tela_configura->_sprintf
    _sprintf->___lwmod
    ___lwmod->___lwdiv
    _LCD_PutChar->_lower
    _LCD_PutChar->_upper
    _LCD_Init->_LCD_PutCmd
    _LCD_PutCmd->_lower
    _LCD_PutCmd->_upper

Critical Paths under _interrupcoes in BANK0

    None.

Critical Paths under _main in BANK1

    None.

Critical Paths under _interrupcoes in BANK1

    None.

Critical Paths under _main in BANK2

    None.

Critical Paths under _interrupcoes in BANK2

    None.

Critical Paths under _main in BANK3

    None.

Critical Paths under _interrupcoes in BANK3

    None.

Critical Paths under _main in BANK4

    None.

Critical Paths under _interrupcoes in BANK4

    None.

Critical Paths under _main in BANK5

    None.

Critical Paths under _interrupcoes in BANK5

    None.

Call Graph Tables:

 ---------------------------------------------------------------------------------
 (Depth) Function   	        Calls       Base Space   Used Autos Params    Refs
 ---------------------------------------------------------------------------------
 (0) _main                                                 2     2      0   18799
                                            122 BANK0      2     2      0
                        _EEPROM_Read
                       _EEPROM_Write
                           _LCD_Init
               _inicia_registradores
                       _passa_jogada
                     _tela_configura
                        _tela_placar
 ---------------------------------------------------------------------------------
 (1) _tela_placar                                         96    96      0   10675
                                             26 BANK0     96    96      0
                         _LCD_PutCmd
                       _escreve_tela
                            _sprintf
                             _strcat
 ---------------------------------------------------------------------------------
 (2) _strcat                                               6     2      4    1614
                                              0 BANK0      6     2      4
 ---------------------------------------------------------------------------------
 (2) _escreve_tela                                         7     4      3    3573
                                              4 BANK0      7     4      3
                        _LCD_PutChar
                         _LCD_PutCmd
                             _strlen
 ---------------------------------------------------------------------------------
 (3) _strlen                                               4     2      2     166
                                              0 BANK0      4     2      2
 ---------------------------------------------------------------------------------
 (1) _tela_configura                                      18    18      0    6346
                                             26 BANK0     18    18      0
                        _LCD_PutChar
                         _LCD_PutCmd
                            _sprintf
 ---------------------------------------------------------------------------------
 (2) _sprintf                                             23    17      6    3422
                                             12 BANK0     14     8      6
                            ___lwdiv
                            ___lwmod
 ---------------------------------------------------------------------------------
 (3) ___lwmod                                              5     1      4     311
                                              7 BANK0      5     1      4
                            ___lwdiv (ARG)
 ---------------------------------------------------------------------------------
 (3) ___lwdiv                                              7     3      4     314
                                              0 BANK0      7     3      4
 ---------------------------------------------------------------------------------
 (3) _LCD_PutChar                                          2     0      2    1106
                                              2 BANK0      2     0      2
                    _LCD_PulseEnable
                              _lower
                              _upper
 ---------------------------------------------------------------------------------
 (1) _passa_jogada                                         0     0      0       0
 ---------------------------------------------------------------------------------
 (1) _inicia_registradores                                 0     0      0       0
 ---------------------------------------------------------------------------------
 (1) _LCD_Init                                             0     0      0    1484
                    _LCD_PulseEnable
                         _LCD_PutCmd
                              _delay
 ---------------------------------------------------------------------------------
 (3) _LCD_PutCmd                                           2     0      2    1484
                                              2 BANK0      2     0      2
                    _LCD_PulseEnable
                              _lower
                              _upper
 ---------------------------------------------------------------------------------
 (4) _upper                                                2     0      2     316
                                              0 BANK0      2     0      2
 ---------------------------------------------------------------------------------
 (4) _lower                                                2     0      2     316
                                              0 BANK0      2     0      2
 ---------------------------------------------------------------------------------
 (4) _LCD_PulseEnable                                      0     0      0       0
                              _delay
 ---------------------------------------------------------------------------------
 (5) _delay                                                0     0      0       0
 ---------------------------------------------------------------------------------
 (1) _EEPROM_Write                                         3     0      3     196
                                              0 BANK0      3     0      3
 ---------------------------------------------------------------------------------
 (1) _EEPROM_Read                                          2     0      2      98
                                              0 BANK0      2     0      2
 ---------------------------------------------------------------------------------
 Estimated maximum stack depth 5
 ---------------------------------------------------------------------------------
 (Depth) Function   	        Calls       Base Space   Used Autos Params    Refs
 ---------------------------------------------------------------------------------
 (6) _interrupcoes                                        14    14      0    4545
                                             77 COMRAM    14    14      0
                     _atualiza_tempo
                               _bipa
                       i2_LCD_PutCmd
                     i2_escreve_tela
 ---------------------------------------------------------------------------------
 (7) i2_escreve_tela                                       7     4      3    1267
                                              4 COMRAM     7     4      3
                      i2_LCD_PutChar
                       i2_LCD_PutCmd
                           i2_strlen
 ---------------------------------------------------------------------------------
 (8) i2_strlen                                             4     2      2     116
                                              0 COMRAM     4     2      2
 ---------------------------------------------------------------------------------
 (7) _bipa                                                 2     2      0       0
                                              0 COMRAM     2     2      0
 ---------------------------------------------------------------------------------
 (7) _atualiza_tempo                                      51    51      0    2824
                                             26 COMRAM    51    51      0
                      i2_LCD_PutChar
                       i2_LCD_PutCmd
                          i2_sprintf
                           i2_strcat
 ---------------------------------------------------------------------------------
 (8) i2_strcat                                             6     2      4     254
                                              0 COMRAM     6     2      4
 ---------------------------------------------------------------------------------
 (8) i2_sprintf                                           23    17      6    1318
                                             12 COMRAM    14     8      6
                          i2___lwdiv
                          i2___lwmod
 ---------------------------------------------------------------------------------
 (9) i2___lwmod                                            5     1      4     211
                                              7 COMRAM     5     1      4
                          i2___lwdiv (ARG)
 ---------------------------------------------------------------------------------
 (9) i2___lwdiv                                            7     3      4     214
                                              0 COMRAM     7     3      4
 ---------------------------------------------------------------------------------
 (8) i2_LCD_PutCmd                                         2     0      2     454
                                              2 COMRAM     2     0      2
                  i2_LCD_PulseEnable
                            i2_lower
                            i2_upper
 ---------------------------------------------------------------------------------
 (8) i2_LCD_PutChar                                        2     0      2     376
                                              2 COMRAM     2     0      2
                  i2_LCD_PulseEnable
                            i2_lower
                            i2_upper
 ---------------------------------------------------------------------------------
 (9) i2_upper                                              2     0      2     140
                                              0 COMRAM     2     0      2
 ---------------------------------------------------------------------------------
 (9) i2_lower                                              2     0      2     140
                                              0 COMRAM     2     0      2
 ---------------------------------------------------------------------------------
 (9) i2_LCD_PulseEnable                                    0     0      0       0
                            i2_delay
 ---------------------------------------------------------------------------------
 (10) i2_delay                                             0     0      0       0
 ---------------------------------------------------------------------------------
 Estimated maximum stack depth 10
 ---------------------------------------------------------------------------------

 Call Graph Graphs:

 _main (ROOT)
   _EEPROM_Read
   _EEPROM_Write
   _LCD_Init
     _LCD_PulseEnable
       _delay
     _LCD_PutCmd
       _LCD_PulseEnable
       _lower
       _upper
     _delay
   _inicia_registradores
   _passa_jogada
   _tela_configura
     _LCD_PutChar
       _LCD_PulseEnable
       _lower
       _upper
     _LCD_PutCmd
     _sprintf
       ___lwdiv
       ___lwmod
         ___lwdiv (ARG)
   _tela_placar
     _LCD_PutCmd
     _escreve_tela
       _LCD_PutChar
       _LCD_PutCmd
       _strlen
     _sprintf
     _strcat

 _interrupcoes (ROOT)
   _atualiza_tempo
     i2_LCD_PutChar
       i2_LCD_PulseEnable
         i2_delay
       i2_lower
       i2_upper
     i2_LCD_PutCmd
       i2_LCD_PulseEnable
       i2_lower
       i2_upper
     i2_sprintf
       i2___lwdiv
       i2___lwmod
         i2___lwdiv (ARG)
     i2_strcat
   _bipa
   i2_LCD_PutCmd
   i2_escreve_tela
     i2_LCD_PutChar
     i2_LCD_PutCmd
     i2_strlen

 Address spaces:
Name               Size   Autos  Total    Cost      Usage
BIGRAM             5FF      0       0      27        0.0%
EEDATA             100      0       0       0        0.0%
BITBANK5           100      0       0      14        0.0%
BANK5              100      0       0      15        0.0%
BITBANK4           100      0       0      12        0.0%
BANK4              100      0       0      13        0.0%
BITBANK3           100      0       0      10        0.0%
BANK3              100      0       0      11        0.0%
BITBANK2           100      0       0       8        0.0%
BANK2              100      0       0       9        0.0%
BITBANK1           100      0       0       6        0.0%
BANK1              100      0      90       7       56.2%
BITBANK0            80      0       0       4        0.0%
BANK0               80     7C      7F       5       99.2%
BITCOMRAM           7E      0       1       0        0.8%
COMRAM              7E     5B      79       1       96.0%
BITBIGSFRlhl        18      0       0      18        0.0%
BITBIGSFRllhhhl     17      0       0      20        0.0%
BITBIGSFRllhhhh     13      0       0      19        0.0%
BITBIGSFRllhhll      F      0       0      24        0.0%
BITBIGSFRh           D      0       0      16        0.0%
BITBIGSFRllhhhl      B      0       0      22        0.0%
BITBIGSFRllhhhl      4      0       0      21        0.0%
BITBIGSFRllhhlh      1      0       0      23        0.0%
BITBIGSFRllhl        1      0       0      25        0.0%
BITBIGSFRlhh         1      0       0      17        0.0%
BIGSFR               0      0       0     200        0.0%
BITSFR               0      0       0     200        0.0%
SFR                  0      0       0     200        0.0%
STACK                0      0       0       2        0.0%
NULL                 0      0       0       0        0.0%
ABS                  0      0     188      26        0.0%
DATA                 0      0     188       3        0.0%
CODE                 0      0       0       0        0.0%


Microchip Technology PIC18 Macro Assembler V2.36 build 20220127204148 
Symbol Table                                                                                   Wed Jun 29 10:15:05 2022

                           _x 03CA                   ?_LCD_PutCmd 0082            i2___lwdiv@dividend 0001  
                         l203 13CC                           l132 18A0                           l140 1A10  
                         l124 1C72                           l141 1A24                           l150 1A6A  
                         l118 16F0                           l206 1CB4                           l127 1CD6  
                         l151 1A6C                           l143 1A26                           l135 19E2  
                         l232 1BF4                           l152 1A80                           l136 19E4  
                         l160 1CC8                           l137 19F8                           l234 1C02  
                         l154 1A82                           l146 1A3E                           l138 19FA  
                         l235 1C04                           l147 1A40                           l139 1A0E  
                         l243 0D92                           l148 1A54                           l149 1A56  
                         l157 1C2A                           l229 08CE                           l238 1CE4  
                         l167 150A                           l257 0ED4                           l196 12F8  
                         l289 10AA                           l771 1600                           l781 1832  
                         l960 167C                           l778 1608                           l788 183A  
                         l966 1B88                  ?_LCD_PutChar 0082                           wreg 000FE8  
                        l2010 0FD4                          l2020 1014                          l2012 0FE6  
                        l2004 0FA4                          l2022 105A                          l2014 0FFC  
                        l2030 109E                          l2200 1692                          l2024 1066  
                        l2016 1008                          l2008 0FD2                          l2040 1638  
                        l2210 16A8                          l2202 1696                          l2026 106A  
                        l2018 100C                          l2042 1642                          l2034 160A  
                        l2212 16AC                          l2204 169C                          l2028 107C  
                        l2220 125E                          l2036 1616                          l2300 079A  
                        l2214 16B0                          l2206 16A0                          l2230 1290  
                        l2222 126C                          l2038 161C                          l2310 0824  
                        l2302 07AC                          l2208 16A4                          l2216 1CB6  
                        l2240 1316                          l2232 1296                          l2320 08A6  
                        l2312 0846                          l2304 07C8                          l2330 1BF2  
                        l2250 1356                          l2242 1334                          l2234 12B2  
                        l2218 124C                          l2322 08BC                          l2314 0864  
                        l2306 07EA                          l2332 1CD8                          l2324 1BD8  
                        l2260 1384                          l2252 135C                          l2236 12BE  
                        l2228 1276                          l2316 087A                          l2308 0808  
                        l2500 0EB6                          l2334 1CE2                          l2326 1BE8  
                        l2270 1C98                          l2262 1390                          l2254 137C  
                        l2238 12DC                          l2318 0890                          l2510 0EF0  
                        l2502 0EBC                          l2328 1BF0                          l1800 1CCA  
                        l2192 167E                          l2272 1CB0                          l2264 13AC  
                        l2248 133C                          l2280 068A                          l2512 0EF8  
                        l2504 0ECC                          l1802 1CCC                          l1810 19F2  
                        l2194 1686                          l2274 1CB2                          l2266 13B2  
                        l2290 0724                          l2282 06A6                          l2506 0ED6  
                        l2450 0D7E                          l1804 1CD0                          l1820 1A4E  
                        l1812 1A08                          l2196 168A                          l2268 1C96  
                        l2292 0742                          l2284 06C8                          l2276 0634  
                        l2508 0EE8                          l2460 0DBC                          l2452 0D86  
                        l1822 1A64                          l1814 1A1E                          l1806 19CC  
                        l2198 168E                          l2294 0758                          l2286 06E6  
                        l2278 067C                          l2470 0E0E                          l2462 0DCA  
                        l2454 0DA6                          l2446 0D58                          l1824 1A7A  
                        l1816 1A28                          l1808 19DC                          l1840 1C06  
                        l2296 076E                          l2288 0702                          l2480 0E50  
                        l2472 0E16                          l2464 0DDA                          l2456 0DAA  
                        l2448 0D6E                          l1818 1A38                          l1834 1C52  
                        l1842 1C08                          l1850 1B38                          l2298 0784  
                        l2482 0E52                          l2490 0E7A                          l2474 0E1A  
                        l2466 0DE8                          l2458 0DAE                          l1836 1C5E  
                        l1844 1C14                          l1860 1594                          l1852 1B44  
                        l2492 0E88                          l2484 0E60                          l2468 0E06  
                        l2476 0E32                          l1838 1C62                          l1846 1C18  
                        l1870 15CE                          l1862 159E                          l1854 1B4A  
                        l2494 0E98                          l2486 0E6E                          l2478 0E40  
                        l1792 183C                          l1848 1C28                          l1880 15FA  
                        l1872 15D4                          l1864 15B0                          l1856 1B7A  
                        l2496 0E9A                          l2488 0E76                          l1794 184C  
                        l1874 15EA                          l1866 15B8                          l1890 1808  
                        l1882 17D6                          l1970 14DC                          l1962 147A  
                        l2498 0EA8                          l1876 15F2                          l1868 15C0  
                        l1892 181E                          l1884 17EA                          l1980 0F32  
                        l1972 14E0                          l1964 148C                          l1798 1872  
                        l1878 15F4                          l1894 1826                          l1886 17F2  
                        l1990 0F7E                          l1982 0F3A                          l1974 0F06  
                        l1966 1498                          l1896 182C                          l1888 17FA  
                        l1992 0F86                          l1976 0F14                          l1968 14A2  
                        l1994 0F94                          l1986 0F3E                          l1978 0F26  
                        l1996 0F98                          l1988 0F6E                          l1998 0FA0  
                        STR_1 0621                          STR_2 060C                          STR_3 0621  
                        STR_4 0617                          STR_5 062A                          STR_6 062B  
                        STR_7 062A                          STR_8 062B                          STR_9 062A  
                        u1200 1A08                          u2000 0702                          u1201 1A04  
                        u2001 06FE                          u1210 1A1E                          u2010 07C8  
                        u1211 1A1A                          u2011 07C4                          u1220 1A38  
                        u1300 15B0                          u2020 0824                          u1221 1A34  
                        u1301 15AC                          u2021 0820                          u2030 1C02  
                        u1230 1A4E                          u1310 15CE                          u2031 1BFE  
                        u1231 1A4A                          u1311 15CA                          u1160 186E  
                        u1240 1A64                          u1320 15EA                          u2200 0D7E  
                        u1161 186A                          u1241 1A60                          u1321 15E6  
                        u2201 0D7A                          u1170 18A0                          u1250 1A7A  
                        u1330 17EA                          u2210 0DBC                          u1171 189C  
                        u1251 1A76                          u1331 17E6                          u2211 0DB8  
                        u1180 19DC                          u1340 1808                          u1500 148C  
                        u2300 0EB6                          u2220 0DCA                          u1181 19D8  
                        u1341 1804                          u1501 1488                          u2301 0EB2  
                        u2221 0DC6                          u1190 19F2                          u1350 181E  
                        u1510 14CE                          u2230 0DE8                          u1191 19EE  
                        u1351 181A                          u2231 0DE4                          u1280 1B6A  
                        u1520 150A                          u1600 1634                          u2240 0E06  
                        u1521 1506                          u1601 1630                          u2241 0E02  
                        u1530 0F26                          u1290 1B7A                          u1610 166A  
                        u2250 0E40                          u1531 0F22                          u1291 1B76  
                        u2251 0E3C                          u1540 0F94                          u1620 167C  
                        u2260 0E60                          u1541 0F90                          u1517 14C4  
                        u1621 1678                          u2261 0E5C                          u2317 0DD2  
                        u1550 0FCE                          u2270 0E6E                          u1551 0FCA  
                        u1287 1B60                          u2271 0E6A                          u2327 0E26  
                        u1560 0FE6                          u2280 0E88                          u1561 0FE2  
                        u1617 1660                          u2281 0E84                          u2337 0E48  
                        u1570 0FFC                          u2290 0EA8                          u1571 0FF8  
                        u2291 0EA4                          u2347 0E90                          u1580 107C  
                        u1900 1334                          u1581 1078                          u1901 1330  
                        u1590 109E                          u1910 1378                          u1591 109A  
                        u1911 1374                          u1920 13CC                          u1921 13C8  
                        u1850 1CC6                          u1851 1CC0                          u1931 063A  
                        u1941 0646                          u1871 1256                          u1951 0652  
                        u1880 12B2                          u1865 1CC8                          u1881 12AE  
                        u1961 065E                          u1890 12DC                          u1891 12D8  
                        u1971 066A                          u1981 0676                          u1990 06A6  
                        u1991 06A2                          _TMR0 000FD6                          _bipa 13CE  
                        _min1 0066                          _min2 0064                          _seg1 006A  
                        _seg2 0068                          _main 0D58                          _tipo 03C9  
                        fsr0h 000FEA                          fsr1h 000FE2            i2___lwdiv@quotient 0005  
                        indf0 000FEF                          fsr2h 000FDA                          fsr0l 000FE9  
                        indf2 000FDF                          fsr1l 000FE1                          fsr2l 000FD9  
                        btemp 007A                          prodh 000FF4                          prodl 000FF3  
             __end_ofi2_delay 1908                          start 000E               __end_ofi2_lower 1B38  
             __end_ofi2_upper 1ADE                  ___param_bank 000000          __end_of_EEPROM_Write 1C06  
            __end_of_LCD_Init 16F2                   LCD_PutCmd@c 0082                         ?_bipa 0001  
                       ?_main 0001                         _EEADR 000FA9                         STR_10 062B  
                       STR_11 062A                         STR_20 062B                         STR_12 062B  
                       STR_21 062E                         STR_13 062E                         STR_14 062A  
                       STR_22 060B                         STR_15 062B                         STR_23 062A  
                       STR_24 062B                         STR_16 0630                         STR_25 062A  
                       STR_17 062A                         STR_26 062B                         STR_18 062B  
                       STR_27 062E                         STR_19 062A                         STR_28 0616  
                       _T0CON 000FD5               __end_of___lwdiv 160A                         i2l112 0D24  
             __end_of___lwmod 183C                         i2l115 1478                         i2l132 1906  
                       i2l140 1AC6                         i2l124 1C94                         i2l141 1ADA  
                       i2l150 1B1E                         i2l127 1CF2                         i2l151 1B20  
                       i2l143 1ADC                         i2l135 1A98                         i2l152 1B34  
                       i2l136 1A9A                         i2l137 1AAE                         i2l154 1B36  
                       i2l146 1AF2                         i2l138 1AB0                         i2l147 1AF4  
                       i2l139 1AC4                         i2l148 1B08                         i2l149 1B0A  
                       i2l157 1C50                         i2l167 1592                         i2l189 0B1C  
                       i2l289 124A                         i2l771 175C                         i2l781 1962  
                       i2l960 17D4                         i2l778 1764                         i2l788 196A  
                       i2l966 1BD6                         _PORTD 000F83                         _TRISB 000F93  
                       _TRISD 000F95                 ?_escreve_tela 0084                         _delay 183C  
             __end_of_dpowers 060B                         _mili1 0078                         _count 005C  
                       _mili2 0077                         _lower 1A28                         _upper 19CC  
              __pbitbssCOMRAM 03C8                         tablat 000FF5        ??_inicia_registradores 0080  
                       plusw1 000FE3                         plusw2 000FDB                tela_placar@aux 009A  
                       ttemp5 007B                         ttemp6 007E                         ttemp7 0082  
                       status 000FD8               tela_configura@i 00A4                         wtemp8 007B  
             __end_of_sprintf 10AC              EEPROM_Write@data 0082              __end_ofi2_strcat 17D6  
            __end_ofi2_strlen 1BD8               __initialization 196C                  __end_of_bipa 147A  
                __end_of_main 0F06                _atualiza_tempo 08D0                        ??_bipa 0001  
            ??i2_escreve_tela 0008                        ??_main 00FA           i2escreve_tela@linha 0007  
               __activetblptr 000002                    i2sprintf@c 001A                    i2sprintf@f 000F  
                  i2strcat@cp 0005                    i2strcat@to 0001                ??_escreve_tela 0087  
                  i2strlen@cp 0003                  LCD_PutChar@c 0082                        ?_delay 0001  
                      _ADCON1 000FC1                        _EEDATA 000FA8                        _EECON2 000FA7  
                      ?_lower 0080                        ?_upper 0080                  ?_tela_placar 0001  
                   ??i2_delay 0001                        i2l2100 11A0                        i2l2110 1206  
                      i2l2102 11AC                        i2l2112 120A                        i2l2104 11B0  
                      i2l2120 1766                        i2l2050 1C2C                        i2l2106 11B8  
                      i2l2114 121C                        i2l2122 1772                        i2l2130 1B8A  
                      i2l2052 1C2E                        i2l2044 1C74                        i2l2108 11FA  
                      i2l2116 123E                        i2l2060 10AC                        i2l2124 1776  
                      i2l2140 08D0                        i2l2132 1B96                        i2l2054 1C3A  
                      i2l2046 1C80                        i2l2062 10B8                        i2l2126 1792  
                      i2l2150 096C                        i2l2142 0906                        i2l2134 1B9A  
                      i2l2056 1C3E                        i2l2048 1C84                        i2l2080 1138  
                      i2l2072 10E2                        i2l2064 10CA                        i2l2128 179A  
                      i2l2160 0A04                        i2l2152 0988                        i2l2144 0914  
                      i2l2136 1BCA                        i2l2400 0C5E                        i2l2058 1C4E  
                      i2l2090 1148                        i2l2082 113C                        i2l2074 1112  
                      i2l2066 10D6                        i2l2170 0A8C                        i2l2162 0A20  
                      i2l2154 09A8                        i2l2146 0930                        i2l2410 0C8C  
                      i2l2402 0C62                        i2l2084 1144                        i2l2076 1122  
                      i2l2068 10DE                        i2l2180 0ADA                        i2l2172 0AA0  
                      i2l2164 0A3C                        i2l2148 0950                        i2l2156 09C8  
                      i2l1460 1416                        i2l1452 13CE                        i2l2340 151C  
                      i2l2412 0CA4                        i2l2404 0C74                        i2l2420 0CDA  
                      i2l2094 1176                        i2l2078 112A                        i2l2190 0B00  
                      i2l2174 0AB4                        i2l2166 0A5C                        i2l2158 09E4  
                      i2l1462 142E                        i2l1454 13D0                        i2l2342 1528  
                      i2l2430 0D0E                        i2l2422 0CEE                        i2l2414 0CB0  
                      i2l2406 0C86                        i2l2350 0B50                        i2l2096 1178  
                      i2l2176 0AC0                        i2l2168 0A78                        i2l1464 1446  
                      i2l1456 13E6                        i2l2344 1530                        i2l2432 0D10  
                      i2l2424 0CF6                        i2l2416 0CC0                        i2l2408 0C88  
                      i2l2360 0B88                        i2l2352 0B5E                        i2l2098 118A  
                      i2l2186 0AE2                        i2l2178 0ACE                        i2l1466 145E  
                      i2l1458 13FE                        i2l2346 1568                        i2l2338 150C  
                      i2l2434 0D12                        i2l2426 0CFC                        i2l2418 0CD0  
                      i2l2370 0BB8                        i2l2362 0B8E                        i2l2354 0B6E  
                      i2l1900 1CE8                        i2l2188 0AFC                        i2l1468 1476  
                      i2l2348 156A                        i2l2436 0D20                        i2l2380 0C00  
                      i2l2372 0BBC                        i2l2364 0B92                        i2l2356 0B76  
                      i2l2428 0D00                        i2l1902 1CEC                        i2l1910 1ABE  
                      i2l2438 0D22                        i2l2374 0BD4                        i2l2366 0BA4  
                      i2l2382 0C0A                        i2l2358 0B78                        i2l2390 0C30  
                      i2l1832 18D8                        i2l1920 1B18                        i2l1912 1AD4  
                      i2l1904 1A84                        i2l2392 0C3E                        i2l2384 0C1E  
                      i2l2376 0BE0                        i2l2368 0BB6                        i2l1826 18A2  
                      i2l1922 1B2E                        i2l1914 1ADE                        i2l1906 1A92  
                      i2l1930 1714                        i2l2394 0C46                        i2l2386 0C26  
                      i2l2378 0BF0                        i2l1828 18B2                        i2l1916 1AEC  
                      i2l1908 1AA8                        i2l1940 174E                        i2l1932 171C  
                      i2l1924 16F2                        i2l2396 0C48                        i2l2388 0C2C  
                      i2l1918 1B02                        i2l1942 1750                        i2l1934 172A  
                      i2l1926 16FA                        i2l1950 1922                        i2l2398 0C58  
                      i2l1944 1756                        i2l1936 1730                        i2l1928 170C  
                      i2l1960 195C                        i2l1952 192A                        i2l1938 1746  
                      i2l1954 1938                        i2l1946 1908                        i2l1956 194E  
                      i2l1948 191A                        i2l1958 1956                        i2l1898 1CE6  
                      _INTCON 000FF2               _LCD_PulseEnable 1CCA                     ??i2_lower 0003  
                   ??i2_upper 0003        __end_of_atualiza_tempo 0B1E                     ??___lwdiv 0084  
                   ??___lwmod 008B                        _inicia 03CB                 ?i2_LCD_PutCmd 0003  
                      clear_0 19AA                        clear_1 19B8                        _player 03CC  
                      isa$std 000001                        _strcat 160A                        _strlen 1B38  
                __pdataCOMRAM 006D             __end_ofi2___lwdiv 1766                        lower@c 0080  
                __mediumconst 0000             __end_ofi2___lwmod 196C                        tblptrh 000FF7  
                      tblptrl 000FF6                        tblptru 000FF8        i2escreve_tela@mensagem 0005  
             tela_placar@aux1 00AA               tela_placar@aux2 00BA               tela_placar@aux3 00CA  
             tela_placar@aux4 00DA               tela_placar@aux5 00EA                        upper@c 0080  
                   ??_sprintf 0092                    __accesstop 0080       __end_of__initialization 19BE  
                   ?_LCD_Init 0001                 i2sprintf@flag 0016                 ___rparam_used 000001  
               i2sprintf@prec 0017                _tela_configura 124C             __end_ofi2_sprintf 124C  
          i2___lwmod@dividend 0008                __pcstackCOMRAM 0001                 ?_interrupcoes 0001  
                __pidataBANK0 1D00                 __end_of_delay 18A2                 ?_passa_jogada 0001  
              ??i2_LCD_PutCmd 0005               ?_atualiza_tempo 0001                  ??_LCD_PutCmd 0084  
               __end_of_lower 1A84                 __end_of_upper 1A28       __end_of_LCD_PulseEnable 1CD8  
                   ?i2_strcat 0001                       ??_delay 0080                     ?i2_strlen 0001  
                     ??_lower 0082                       ??_upper 0082                  _EEPROM_Write 1BD8  
                  __pbssBANK1 0100                   i2sprintf@ap 0014                   i2sprintf@sp 000D  
                  ??_LCD_Init 0084        __end_of_tela_configura 13CE            __end_of_LCD_PutCmd 1C74  
        __end_of_escreve_tela 150C                ??_interrupcoes 004E                ??_passa_jogada 0080  
                     ?_strcat 0080                       ?_strlen 0080        tela_configura@mensagem 009B  
               i2_LCD_PutChar 1C2C                    ??i2_strcat 0005                    ??i2_strlen 0003  
              i2LCD_PutChar@c 0003                       i2_delay 18A2                       i2_lower 1ADE  
                     i2_upper 1A84               ?_tela_configura 0001                       __Hparam 0000  
                     __Lparam 0000                       ___lwdiv 1594                       ___lwmod 17D6  
                __psmallconst 0600                       __pcinit 196C                       __ramtop 0600  
                     __ptext0 0D58                       __ptext1 0634                       __ptext2 160A  
                     __ptext3 147A                       __ptext4 1B38                       __ptext5 124C  
                     __ptext6 0F06                       __ptext7 17D6                       __ptext8 1594  
                     __ptext9 1C06                     _T0CONbits 000FD5                       _dpowers 0601  
              ?i2_LCD_PutChar 0003              ?_LCD_PulseEnable 0001                       _sprintf 0F06  
              __pintcode_body 0B1E          end_of_initialization 19BE          __end_ofi2_LCD_PutCmd 1C96  
               ??_EEPROM_Read 0082              tela_placar@F2623 0150              tela_placar@F2631 0110  
            tela_placar@F2625 0140              tela_placar@F2633 0100              tela_placar@F2627 0130  
            tela_placar@F2629 0120                 __Lmediumconst 0000                       int_func 0B1E  
           escreve_tela@linha 0086            atualiza_tempo@aux1 002C            atualiza_tempo@aux2 003C  
                     postdec1 000FE5                       postdec2 000FDD                       postinc0 000FEE  
                     postinc2 000FDE                       strlen@s 0080                     _PORTAbits 000F80  
                   _PORTBbits 000F81                     _PORTDbits 000F83          __end_of_interrupcoes 0D58  
           i2___lwdiv@divisor 0003          __end_of_passa_jogada 1CCA                     i2___lwdiv 16F2  
                   i2___lwmod 1908             i2___lwdiv@counter 0007                 escreve_tela@i 008A  
            ??_atualiza_tempo 001B           __end_of_EEPROM_Read 1CE6                     i2_sprintf 10AC  
                  _write_char 006C                 __pidataCOMRAM 1CF4               ??i2_LCD_PutChar 0005  
               ??_LCD_PutChar 0084                __end_of_strcat 167E                __end_of_strlen 1B8A  
         start_initialization 196C                  _escreve_tela 147A                  _minConfigura 00FC  
                  ?i2___lwdiv 0001                    ?i2___lwmod 0008                     i2strlen@s 0001  
                  ?i2_sprintf 000D                   __pdataBANK0 00FC                      ??_strcat 0084  
                    ??_strlen 0082                   __pbssCOMRAM 005C                  i2sprintf@val 0018  
                i2strcat@from 0003                 __pcstackBANK0 0080             i2___lwmod@divisor 000A  
           i2___lwmod@counter 000C          escreve_tela@mensagem 0084              ??_tela_configura 009A  
         __end_of_LCD_PutChar 1C2C                      ?i2_delay 0001                      ?i2_lower 0001  
                    ?i2_upper 0001                   sprintf@flag 0095                   _EEPROM_Read 1CD8  
                 sprintf@prec 0096                     __pnvBANK0 00FE              ___lwdiv@dividend 0080  
                   __pintcode 0008                      ?___lwdiv 0080                      ?___lwmod 0087  
                i2_LCD_PutCmd 1C74               atualiza_tempo@i 004C                     _configura 03C8  
               i2LCD_PutCmd@c 0003                   __smallconst 0600              ___lwdiv@quotient 0084  
                    ?_sprintf 008C                     _read_char 00FE                 ??_tela_placar 009A  
                 ??i2___lwdiv 0005                   ??i2___lwmod 000C                      _LCD_Init 167E  
                    i2u210_40 0BA4                      i2u210_41 0BA0                      i2u211_40 0BB6  
                    i2u211_41 0BB2                      i2u140_40 1AEC                      i2u204_40 151C  
                    i2u212_40 0C1E                      i2u140_41 1AE8                      i2u204_41 1518  
                    i2u212_41 0C1A                      i2u141_40 1B02                      i2u205_40 155C  
                    i2u213_40 0C3E                      i2u141_41 1AFE                      i2u213_41 0C3A  
                    i2u205_47 1552                      i2u126_40 18D4                      i2u142_40 1B18  
                    i2u206_40 1592                      i2u214_40 0C58                      i2u126_41 18D0  
                    i2u142_41 1B14                      i2u206_41 158E                      i2u214_41 0C54  
                    i2u127_40 1906                      i2u143_40 1B2E                      i2u215_40 0C74  
                    i2u207_40 0B5E                      i2u127_41 1902                      i2u143_41 1B2A  
                    i2u215_41 0C70                      i2u207_41 0B5A                      i2u136_40 1A92  
                    i2u144_40 170C                      i2u216_40 0C86                      i2u208_40 0B6E  
                    i2u136_41 1A8E                      i2u144_41 1708                      i2u216_41 0C82  
                    i2u208_41 0B6A                      i2u240_47 1422                      i2u137_40 1AA8  
                    i2u145_40 172A                      i2u217_40 0CEE                      i2u209_40 0B88  
                    i2u137_41 1AA4                      i2u145_41 1726                      i2u217_41 0CEA  
                    i2u209_41 0B84                      i2u241_47 143A                      i2u138_40 1ABE  
                    i2u146_40 1746                      i2u170_40 178E                      i2u218_40 0D0E  
                    i2u138_41 1ABA                      i2u146_41 1742                      i2u170_41 178A  
                    i2u218_41 0D0A                      i2u242_47 1452                      i2u139_40 1AD4  
                    i2u147_40 191A                      i2u163_40 10CA                      i2u171_40 17C2  
                    i2u219_40 0D20                      i2u139_41 1AD0                      i2u147_41 1916  
                    i2u163_41 10C6                      i2u219_41 0D1C                      i2u171_47 17B8  
                    i2u243_47 146A                      i2u235_47 0BC6                      i2u148_40 1938  
                    i2u164_40 1138                      i2u172_40 17D4                      i2u180_40 0988  
                    i2u148_41 1934                      i2u164_41 1134                      i2u172_41 17D0  
                    i2u180_41 0984                      i2u236_47 0C96                      i2u149_40 194E  
                    i2u165_40 1172                      i2u181_40 09E4                      i2u173_40 1BBA  
                    i2u149_41 194A                      i2u165_41 116E                      i2u181_41 09E0  
                    i2u237_47 13DA                      i2u173_47 1BB0                      i2u166_40 118A  
                    i2u182_40 0A3C                      i2u174_40 1BCA                      i2u166_41 1186  
                    i2u182_41 0A38                      i2u174_41 1BC6                      i2u238_47 13F2  
                    i2u167_40 11A0                      i2u183_40 0ACE                      i2u167_41 119C  
                    i2u183_41 0ACA                      i2u175_41 08DA                      i2u239_47 140A  
                    i2u168_40 121C                      i2u184_40 0B1C                      i2u168_41 1218  
                    i2u184_41 0B18                      i2u176_41 08EC                      i2u169_40 123E  
                    i2u169_41 123A                      i2u177_41 08FE                      i2u178_40 0914  
                    i2u178_41 0910                      i2u179_40 0930                      i2u179_41 092C  
                    _PIR2bits 000FA1             atualiza_tempo@aux 001C                  _interrupcoes 0008  
                 ??i2_sprintf 0013                  _passa_jogada 1CB6  __end_of_inicia_registradores 1CB6  
                 _LCD_PutChar 1C06                      i2_strcat 1766                      i2_strlen 1B8A  
              i2_escreve_tela 150C                   _INTCON3bits 000FF0                     copy_data0 1998  
              _eeprom_address 0076                      i2lower@c 0001                      i2upper@c 0001  
                  _EECON1bits 000FA6           __end_of_tela_placar 08D0                      __Hrparam 0000  
                    __Lrparam 0000                    sprintf@val 0097                    strcat@from 0082  
      __end_ofi2_escreve_tela 1594               ___lwdiv@divisor 0082               ___lwdiv@counter 0086  
                    __ptext10 1CB6                      __ptext11 1C96                      __ptext12 167E  
                    __ptext21 150C                      __ptext13 1C52                      __ptext30 1C2C  
                    __ptext22 1B8A                      __ptext14 19CC                      __ptext31 1A84  
                    __ptext23 13CE                      __ptext15 1A28                      __ptext32 1ADE  
                    __ptext24 08D0                      __ptext16 1CCA                      __ptext33 1CE6  
                    __ptext25 1766                      __ptext17 183C                      __ptext34 18A2  
                    __ptext26 10AC                      __ptext18 1BD8                      __ptext27 1908  
                    __ptext19 1CD8                      __ptext28 16F2                      __ptext29 1C74  
               ?_EEPROM_Write 0080             i2_LCD_PulseEnable 1CE6            ?i2_LCD_PulseEnable 0001  
                    isa$xinst 000000                      int$flags 007A                    _LCD_PutCmd 1C52  
         ??i2_LCD_PulseEnable 0001         __end_ofi2_LCD_PutChar 1C52                    _INTCONbits 000FF2  
         tela_configura@F2614 006D               ?i2_escreve_tela 0005                ??_EEPROM_Write 0083  
                 _tela_placar 0634           tela_configura@i_624 00A6           tela_configura@i_625 00A8  
                    intlevel2 0000           atualiza_tempo@F2610 0160           atualiza_tempo@F2606 0180  
         atualiza_tempo@F2608 0170                     sprintf@ap 0093                     sprintf@sp 008C  
   __end_ofi2_LCD_PulseEnable 1CF4              ___lwmod@dividend 0087                  ?_EEPROM_Read 0080  
        _inicia_registradores 1C96            EEPROM_Read@address 0080             ??_LCD_PulseEnable 0080  
             i2escreve_tela@i 000B                      sprintf@c 0099                      sprintf@f 008E  
                    strcat@cp 0084                      strcat@to 0080            tela_configura@aux1 00AA  
             ___lwmod@divisor 0089                      strlen@cp 0082               ___lwmod@counter 008B  
       ?_inicia_registradores 0001           EEPROM_Write@address 0080                 _mainEventFlag 0060  
